(dp1
S'files'
p2
(dp3
S'_Library_Python_2_7_site-packages_pg_catalog_pg_description'
p4
(dp5
S'index'
p6
(dp7
S'html_filename'
p8
S'_Library_Python_2_7_site-packages_pg_catalog_pg_description.html'
p9
sS'name'
p10
S'/Library/Python/2.7/site-packages/pg_catalog/pg_description'
p11
sS'nums'
p12
ccopy_reg
_reconstructor
p13
(ccoverage.results
Numbers
p14
c__builtin__
object
p15
NtRp16
(dp17
S'n_files'
p18
I1
sS'n_branches'
p19
I0
sS'n_statements'
p20
I8
sS'n_excluded'
p21
I0
sS'n_partial_branches'
p22
I0
sS'n_missing'
p23
I0
sS'n_missing_branches'
p24
I0
sbssS'hash'
p25
S'\xb1\x06\xd1\x98\xc9\x00bU\x87V\xd1+\xd9\xe9\xcbb'
p26
ssS'_Library_Python_2_7_site-packages_SQLAlchemy-0_8_0b2-py2_7-macosx-10_7-intel_egg_sqlalchemy_orm_mapper'
p27
(dp28
S'index'
p29
(dp30
S'html_filename'
p31
S'_Library_Python_2_7_site-packages_SQLAlchemy-0_8_0b2-py2_7-macosx-10_7-intel_egg_sqlalchemy_orm_mapper.html'
p32
sS'name'
p33
S'/Library/Python/2.7/site-packages/SQLAlchemy-0.8.0b2-py2.7-macosx-10.7-intel.egg/sqlalchemy/orm/mapper'
p34
sS'nums'
p35
g13
(g14
g15
NtRp36
(dp37
g18
I1
sg19
I0
sg20
I852
sg21
I0
sg22
I0
sg23
I443
sg24
I0
sbssS'hash'
p38
S'5sZ\x00RS\xc0\xd6\xf9<zma\xfbK\xda'
p39
ssS'_Library_Python_2_7_site-packages_SQLAlchemy-0_8_0b1dev-py2_7-macosx-10_7-intel_egg_sqlalchemy_ext_compiler'
p40
(dp41
g6
(dp42
g8
S'_Library_Python_2_7_site-packages_SQLAlchemy-0_8_0b1dev-py2_7-macosx-10_7-intel_egg_sqlalchemy_ext_compiler.html'
p43
sg10
S'/Library/Python/2.7/site-packages/SQLAlchemy-0.8.0b1dev-py2.7-macosx-10.7-intel.egg/sqlalchemy/ext/compiler'
p44
sg12
g13
(g14
g15
NtRp45
(dp46
g18
I1
sg19
I0
sg20
I29
sg21
I0
sg22
I0
sg23
I10
sg24
I0
sbssg25
S'\xc4\xaa6cZA\x0c.R^u\x06\xbeT\xa11'
p47
ssS'_Library_Python_2_7_site-packages_nose___init__'
p48
(dp49
g6
(dp50
g8
S'_Library_Python_2_7_site-packages_nose___init__.html'
p51
sg10
S'/Library/Python/2.7/site-packages/nose/__init__'
p52
sg12
g13
(g14
g15
NtRp53
(dp54
g18
I1
sg19
I0
sg20
I7
sg21
I0
sg22
I0
sg23
I0
sg24
I0
sbssg25
S'\x12\xc1\x0f\xd0\xabq?$T\xdbi\x18j\x04"\r'
p55
ssS'_Library_Python_2_7_site-packages_SQLAlchemy-0_8_0b1dev-py2_7-macosx-10_7-intel_egg_sqlalchemy_orm_identity'
p56
(dp57
g6
(dp58
g8
S'_Library_Python_2_7_site-packages_SQLAlchemy-0_8_0b1dev-py2_7-macosx-10_7-intel_egg_sqlalchemy_orm_identity.html'
p59
sg10
S'/Library/Python/2.7/site-packages/SQLAlchemy-0.8.0b1dev-py2.7-macosx-10.7-intel.egg/sqlalchemy/orm/identity'
p60
sg12
g13
(g14
g15
NtRp61
(dp62
g18
I1
sg19
I0
sg20
I156
sg21
I0
sg22
I0
sg23
I113
sg24
I0
sbssg25
S'\xd6\x81\xd3\xb5k\xca\xb7\x0b|Tu\xb2,\x19\x8e:'
p63
ssS'_Library_Python_2_7_site-packages_pgit_postgresql_ddl_extension'
p64
(dp65
g6
(dp66
g8
S'_Library_Python_2_7_site-packages_pgit_postgresql_ddl_extension.html'
p67
sg10
S'/Library/Python/2.7/site-packages/pgit/postgresql/ddl/extension'
p68
sg12
g13
(g14
g15
NtRp69
(dp70
g18
I1
sg19
I0
sg20
I6
sg21
I0
sg22
I0
sg23
I2
sg24
I0
sbssg25
S'\n\xd5\x17\x04\x1a\x86<M\xed\x08\x1cx\xaacK)'
p71
ssS'_Library_Python_2_7_site-packages_SQLAlchemy-0_8_0b1dev-py2_7-macosx-10_7-intel_egg_sqlalchemy_connectors___init__'
p72
(dp73
g6
(dp74
g8
S'_Library_Python_2_7_site-packages_SQLAlchemy-0_8_0b1dev-py2_7-macosx-10_7-intel_egg_sqlalchemy_connectors___init__.html'
p75
sg10
S'/Library/Python/2.7/site-packages/SQLAlchemy-0.8.0b1dev-py2.7-macosx-10.7-intel.egg/sqlalchemy/connectors/__init__'
p76
sg12
g13
(g14
g15
NtRp77
(dp78
g18
I1
sg19
I0
sg20
I2
sg21
I0
sg22
I0
sg23
I0
sg24
I0
sbssg25
S'\xb4\xfe\xb0\xf2\x99\x0f\x9d\xfb\xc4mw\x9d\x0c\x89I\x0c'
p79
ssS'_Library_Python_2_7_site-packages_SQLAlchemy-0_8_0b2-py2_7-macosx-10_7-intel_egg_sqlalchemy___init__'
p80
(dp81
g29
(dp82
g31
S'_Library_Python_2_7_site-packages_SQLAlchemy-0_8_0b2-py2_7-macosx-10_7-intel_egg_sqlalchemy___init__.html'
p83
sg33
S'/Library/Python/2.7/site-packages/SQLAlchemy-0.8.0b2-py2.7-macosx-10.7-intel.egg/sqlalchemy/__init__'
p84
sg35
g13
(g14
g15
NtRp85
(dp86
g18
I1
sg19
I0
sg20
I12
sg21
I0
sg22
I0
sg23
I0
sg24
I0
sbssg38
S'\x16g2\xf4?\x06\x8f_\xd6\x1e>\xbcw\x9a\xef1'
p87
ssS'_Library_Python_2_7_site-packages_nose_plugins_deprecated'
p88
(dp89
g6
(dp90
g8
S'_Library_Python_2_7_site-packages_nose_plugins_deprecated.html'
p91
sg10
S'/Library/Python/2.7/site-packages/nose/plugins/deprecated'
p92
sg12
g13
(g14
g15
NtRp93
(dp94
g18
I1
sg19
I0
sg20
I16
sg21
I0
sg22
I0
sg23
I2
sg24
I0
sbssg25
S"\xb2\xbf\xc3F\xca'\xc1MH\xa3\x8e\xe1\xc8\x07!>"
p95
ssS'_Library_Python_2_7_site-packages_SQLAlchemy-0_8_0b2-py2_7-macosx-10_7-intel_egg_sqlalchemy_util__collections'
p96
(dp97
g29
(dp98
g31
S'_Library_Python_2_7_site-packages_SQLAlchemy-0_8_0b2-py2_7-macosx-10_7-intel_egg_sqlalchemy_util__collections.html'
p99
sg33
S'/Library/Python/2.7/site-packages/SQLAlchemy-0.8.0b2-py2.7-macosx-10.7-intel.egg/sqlalchemy/util/_collections'
p100
sg35
g13
(g14
g15
NtRp101
(dp102
g18
I1
sg19
I0
sg20
I547
sg21
I0
sg22
I0
sg23
I299
sg24
I0
sbssg38
S'\x81\x16&\x17\xb5\xb8\x84*\xb5\x15m\xa4${d\xd2'
p103
ssS'_Library_Python_2_7_site-packages_pgit_postgresql_shell_dropdb'
p104
(dp105
g6
(dp106
g8
S'_Library_Python_2_7_site-packages_pgit_postgresql_shell_dropdb.html'
p107
sg10
S'/Library/Python/2.7/site-packages/pgit/postgresql/shell/dropdb'
p108
sg12
g13
(g14
g15
NtRp109
(dp110
g18
I1
sg19
I0
sg20
I14
sg21
I0
sg22
I0
sg23
I11
sg24
I0
sbssg25
S'\xd7\xde\x9dn\x02\xfeKU\xbf\x89\xcc3 \xac\xde0'
p111
ssS'_Library_Python_2_7_site-packages_SQLAlchemy-0_8_0b2-py2_7-macosx-10_7-intel_egg_sqlalchemy_exc'
p112
(dp113
g29
(dp114
g31
S'_Library_Python_2_7_site-packages_SQLAlchemy-0_8_0b2-py2_7-macosx-10_7-intel_egg_sqlalchemy_exc.html'
p115
sg33
S'/Library/Python/2.7/site-packages/SQLAlchemy-0.8.0b2-py2.7-macosx-10.7-intel.egg/sqlalchemy/exc'
p116
sg35
g13
(g14
g15
NtRp117
(dp118
g18
I1
sg19
I0
sg20
I98
sg21
I0
sg22
I0
sg23
I42
sg24
I0
sbssg38
S"\xbd\xe7'\xb5,'\xf6\xfd\xa1_U\xf9\x18\xcb\x92f"
p119
ssS'_Library_Python_2_7_site-packages_pg_catalog_pg_type'
p120
(dp121
g6
(dp122
g8
S'_Library_Python_2_7_site-packages_pg_catalog_pg_type.html'
p123
sg10
S'/Library/Python/2.7/site-packages/pg_catalog/pg_type'
p124
sg12
g13
(g14
g15
NtRp125
(dp126
g18
I1
sg19
I0
sg20
I31
sg21
I0
sg22
I0
sg23
I0
sg24
I0
sbssg25
S'\x1cZ\xbfz\xf0\xf3s\x05\x9c k#l\x88\xb9\xa5'
p127
ssS'_Library_Python_2_7_site-packages_SQLAlchemy-0_8_0b1dev-py2_7-macosx-10_7-intel_egg_sqlalchemy_orm_exc'
p128
(dp129
g6
(dp130
g8
S'_Library_Python_2_7_site-packages_SQLAlchemy-0_8_0b1dev-py2_7-macosx-10_7-intel_egg_sqlalchemy_orm_exc.html'
p131
sg10
S'/Library/Python/2.7/site-packages/SQLAlchemy-0.8.0b1dev-py2.7-macosx-10.7-intel.egg/sqlalchemy/orm/exc'
p132
sg12
g13
(g14
g15
NtRp133
(dp134
g18
I1
sg19
I0
sg20
I60
sg21
I0
sg22
I0
sg23
I35
sg24
I0
sbssg25
S'Y\xb1*\xe3\xec\x1d9\xe3\xcc\x00\xd9]\xd8\x83\xc5a'
p135
ssS'_Library_Python_2_7_site-packages_pg_catalog_pg_amproc'
p136
(dp137
g6
(dp138
g8
S'_Library_Python_2_7_site-packages_pg_catalog_pg_amproc.html'
p139
sg10
S'/Library/Python/2.7/site-packages/pg_catalog/pg_amproc'
p140
sg12
g13
(g14
g15
NtRp141
(dp142
g18
I1
sg19
I0
sg20
I9
sg21
I0
sg22
I0
sg23
I0
sg24
I0
sbssg25
S'\x9e\xa4\x10D]\x8e\xf4\xc3`\x8e~\x93\xc0{\xaaP'
p143
ssS'_Library_Python_2_7_site-packages_pg_catalog_pg_class'
p144
(dp145
g6
(dp146
g8
S'_Library_Python_2_7_site-packages_pg_catalog_pg_class.html'
p147
sg10
S'/Library/Python/2.7/site-packages/pg_catalog/pg_class'
p148
sg12
g13
(g14
g15
NtRp149
(dp150
g18
I1
sg19
I0
sg20
I16
sg21
I0
sg22
I0
sg23
I0
sg24
I0
sbssg25
S'\xb0R\xed\xdc\xd9\xc3\xfa\x16\x1a\xdc\xb9\x81X@\x19Z'
p151
ssS'_Library_Python_2_7_site-packages_SQLAlchemy-0_8_0b2-py2_7-macosx-10_7-intel_egg_sqlalchemy_orm_loading'
p152
(dp153
g29
(dp154
g31
S'_Library_Python_2_7_site-packages_SQLAlchemy-0_8_0b2-py2_7-macosx-10_7-intel_egg_sqlalchemy_orm_loading.html'
p155
sg33
S'/Library/Python/2.7/site-packages/SQLAlchemy-0.8.0b2-py2.7-macosx-10.7-intel.egg/sqlalchemy/orm/loading'
p156
sg35
g13
(g14
g15
NtRp157
(dp158
g18
I1
sg19
I0
sg20
I305
sg21
I0
sg22
I0
sg23
I287
sg24
I0
sbssg38
S'\x8cDN9\xd9f\x03iB\xef!\x16|[#n'
p159
ssS'_Library_Python_2_7_site-packages_SQLAlchemy-0_8_0b2-py2_7-macosx-10_7-intel_egg_sqlalchemy_ext_compiler'
p160
(dp161
g29
(dp162
g31
S'_Library_Python_2_7_site-packages_SQLAlchemy-0_8_0b2-py2_7-macosx-10_7-intel_egg_sqlalchemy_ext_compiler.html'
p163
sg33
S'/Library/Python/2.7/site-packages/SQLAlchemy-0.8.0b2-py2.7-macosx-10.7-intel.egg/sqlalchemy/ext/compiler'
p164
sg35
g13
(g14
g15
NtRp165
(dp166
g18
I1
sg19
I0
sg20
I34
sg21
I0
sg22
I0
sg23
I13
sg24
I0
sbssg38
S'\t\x9e\xae\x13\x99\xcb?\x80\xb0L\x93\x8b\x16[\x1c!'
p167
ssS'_Library_Python_2_7_site-packages_SQLAlchemy-0_8_0b2-py2_7-macosx-10_7-intel_egg_sqlalchemy_pool'
p168
(dp169
g29
(dp170
g31
S'_Library_Python_2_7_site-packages_SQLAlchemy-0_8_0b2-py2_7-macosx-10_7-intel_egg_sqlalchemy_pool.html'
p171
sg33
S'/Library/Python/2.7/site-packages/SQLAlchemy-0.8.0b2-py2.7-macosx-10.7-intel.egg/sqlalchemy/pool'
p172
sg35
g13
(g14
g15
NtRp173
(dp174
g18
I1
sg19
I0
sg20
I461
sg21
I0
sg22
I0
sg23
I351
sg24
I0
sbssg38
S'\x8d\x0b\xe5\x81\x00\x11\x91\x8cx\xcd\t\xc5"\x9cZ\x07'
p175
ssS'_Library_Python_2_7_site-packages_pg_catalog_func_pg_get_keywords'
p176
(dp177
g6
(dp178
g8
S'_Library_Python_2_7_site-packages_pg_catalog_func_pg_get_keywords.html'
p179
sg10
S'/Library/Python/2.7/site-packages/pg_catalog/func/pg_get_keywords'
p180
sg12
g13
(g14
g15
NtRp181
(dp182
g18
I1
sg19
I0
sg20
I17
sg21
I0
sg22
I0
sg23
I5
sg24
I0
sbssg25
S'\xb8\xb3\x00z5\xa0\xeb\xd0\x0e\\\xad<\xb08\x9a\xfe'
p183
ssS'_Library_Python_2_7_site-packages_pg_catalog___init__'
p184
(dp185
g6
(dp186
g8
S'_Library_Python_2_7_site-packages_pg_catalog___init__.html'
p187
sg10
S'/Library/Python/2.7/site-packages/pg_catalog/__init__'
p188
sg12
g13
(g14
g15
NtRp189
(dp190
g18
I1
sg19
I0
sg20
I49
sg21
I0
sg22
I0
sg23
I10
sg24
I0
sbssg25
S'\x9a\xdf\xd8\xb7\xaa\x1ec\x94\xe6B\xd1\x18y\xb2\xfd\xf9'
p191
ssS'_Library_Python_2_7_site-packages_pg_catalog_pg_conversion'
p192
(dp193
g6
(dp194
g8
S'_Library_Python_2_7_site-packages_pg_catalog_pg_conversion.html'
p195
sg10
S'/Library/Python/2.7/site-packages/pg_catalog/pg_conversion'
p196
sg12
g13
(g14
g15
NtRp197
(dp198
g18
I1
sg19
I0
sg20
I8
sg21
I0
sg22
I0
sg23
I0
sg24
I0
sbssg25
S'*\x9d`\n\xee\x1cS\xe4\x0c\xf2/\xf5\xb1\x96\x85\xa1'
p199
ssS'_Library_Python_2_7_site-packages_SQLAlchemy-0_8_0b1dev-py2_7-macosx-10_7-intel_egg_sqlalchemy_orm_strategies'
p200
(dp201
g6
(dp202
g8
S'_Library_Python_2_7_site-packages_SQLAlchemy-0_8_0b1dev-py2_7-macosx-10_7-intel_egg_sqlalchemy_orm_strategies.html'
p203
sg10
S'/Library/Python/2.7/site-packages/SQLAlchemy-0.8.0b1dev-py2.7-macosx-10.7-intel.egg/sqlalchemy/orm/strategies'
p204
sg12
g13
(g14
g15
NtRp205
(dp206
g18
I1
sg19
I0
sg20
I630
sg21
I0
sg22
I0
sg23
I512
sg24
I0
sbssg25
S'\xd9\xa8$\x07\x8c\x91\xc95\xb4M\n\x01\xb8\x07<\x1c'
p207
ssS'_usr_local_bin_nosetests'
p208
(dp209
g6
(dp210
g8
S'_usr_local_bin_nosetests.html'
p211
sg10
S'/usr/local/bin/nosetests'
p212
sg12
g13
(g14
g15
NtRp213
(dp214
g18
I1
sg19
I0
sg20
I4
sg21
I0
sg22
I0
sg23
I0
sg24
I0
sbssg25
S'\xb0\x8a\xff\xc0zU\x90\xd3\x13^\xe3Yr\x01\xe1!'
p215
ssS'_Library_Python_2_7_site-packages_SQLAlchemy-0_8_0b2-py2_7-macosx-10_7-intel_egg_sqlalchemy_engine_threadlocal'
p216
(dp217
g29
(dp218
g31
S'_Library_Python_2_7_site-packages_SQLAlchemy-0_8_0b2-py2_7-macosx-10_7-intel_egg_sqlalchemy_engine_threadlocal.html'
p219
sg33
S'/Library/Python/2.7/site-packages/SQLAlchemy-0.8.0b2-py2.7-macosx-10.7-intel.egg/sqlalchemy/engine/threadlocal'
p220
sg35
g13
(g14
g15
NtRp221
(dp222
g18
I1
sg19
I0
sg20
I80
sg21
I0
sg22
I0
sg23
I55
sg24
I0
sbssg38
S'U\xf3P\xef\xdc(<\x1a#e\x19\xa4k\x80\xd0K'
p223
ssS'_Library_Python_2_7_site-packages_SQLAlchemy-0_8_0b2-py2_7-macosx-10_7-intel_egg_sqlalchemy_engine_base'
p224
(dp225
g29
(dp226
g31
S'_Library_Python_2_7_site-packages_SQLAlchemy-0_8_0b2-py2_7-macosx-10_7-intel_egg_sqlalchemy_engine_base.html'
p227
sg33
S'/Library/Python/2.7/site-packages/SQLAlchemy-0.8.0b2-py2.7-macosx-10.7-intel.egg/sqlalchemy/engine/base'
p228
sg35
g13
(g14
g15
NtRp229
(dp230
g18
I1
sg19
I0
sg20
I587
sg21
I0
sg22
I0
sg23
I462
sg24
I0
sbssg38
S'Ix7N\xa0\xb8e\xf7`\xf3Y\xafd_\x9f\xb2'
p231
ssS'_Library_Python_2_7_site-packages_pg_catalog_pg_depend'
p232
(dp233
g6
(dp234
g8
S'_Library_Python_2_7_site-packages_pg_catalog_pg_depend.html'
p235
sg10
S'/Library/Python/2.7/site-packages/pg_catalog/pg_depend'
p236
sg12
g13
(g14
g15
NtRp237
(dp238
g18
I1
sg19
I0
sg20
I11
sg21
I0
sg22
I0
sg23
I0
sg24
I0
sbssg25
S'\xf5\xd1J|\xec[\x9b$9lR\xb4T\xd5+\x08'
p239
ssS'_Library_Python_2_7_site-packages_SQLAlchemy-0_8_0b1dev-py2_7-macosx-10_7-intel_egg_sqlalchemy_inspection'
p240
(dp241
g6
(dp242
g8
S'_Library_Python_2_7_site-packages_SQLAlchemy-0_8_0b1dev-py2_7-macosx-10_7-intel_egg_sqlalchemy_inspection.html'
p243
sg10
S'/Library/Python/2.7/site-packages/SQLAlchemy-0.8.0b1dev-py2.7-macosx-10.7-intel.egg/sqlalchemy/inspection'
p244
sg12
g13
(g14
g15
NtRp245
(dp246
g18
I1
sg19
I0
sg20
I27
sg21
I0
sg22
I0
sg23
I3
sg24
I0
sbssg25
S'\xa3\xdedJ\x99(P\x82\x16\xf1,x%\x7f<\xd9'
p247
ssS'_Library_Python_2_7_site-packages_pgit_postgresql_cls_language'
p248
(dp249
g6
(dp250
g8
S'_Library_Python_2_7_site-packages_pgit_postgresql_cls_language.html'
p251
sg10
S'/Library/Python/2.7/site-packages/pgit/postgresql/cls/language'
p252
sg12
g13
(g14
g15
NtRp253
(dp254
g18
I1
sg19
I0
sg20
I20
sg21
I0
sg22
I0
sg23
I5
sg24
I0
sbssg25
S'\x0b\xbd<\xf4\x06v!\x82+\xdaX?O[\xf7\xec'
p255
ssS'_Library_Python_2_7_site-packages_SQLAlchemy-0_8_0b1dev-py2_7-macosx-10_7-intel_egg_sqlalchemy_interfaces'
p256
(dp257
g6
(dp258
g8
S'_Library_Python_2_7_site-packages_SQLAlchemy-0_8_0b1dev-py2_7-macosx-10_7-intel_egg_sqlalchemy_interfaces.html'
p259
sg10
S'/Library/Python/2.7/site-packages/SQLAlchemy-0.8.0b1dev-py2.7-macosx-10.7-intel.egg/sqlalchemy/interfaces'
p260
sg12
g13
(g14
g15
NtRp261
(dp262
g18
I1
sg19
I0
sg20
I69
sg21
I0
sg22
I0
sg23
I47
sg24
I0
sbssg25
S'\xf2\xab\xdc\xc9S\x02}\xc5\xaa{\x1e\xc6\xc4mf\xe4'
p263
ssS'_Library_Python_2_7_site-packages_SQLAlchemy-0_8_0b2-py2_7-macosx-10_7-intel_egg_sqlalchemy_orm_exc'
p264
(dp265
g29
(dp266
g31
S'_Library_Python_2_7_site-packages_SQLAlchemy-0_8_0b2-py2_7-macosx-10_7-intel_egg_sqlalchemy_orm_exc.html'
p267
sg33
S'/Library/Python/2.7/site-packages/SQLAlchemy-0.8.0b2-py2.7-macosx-10.7-intel.egg/sqlalchemy/orm/exc'
p268
sg35
g13
(g14
g15
NtRp269
(dp270
g18
I1
sg19
I0
sg20
I60
sg21
I0
sg22
I0
sg23
I35
sg24
I0
sbssg38
S'BS\xd6\xe9\xe5\x87#\x19YCg\x0f,E\x03J'
p271
ssS'_Library_Python_2_7_site-packages_pg_catalog_pg_attribute'
p272
(dp273
g6
(dp274
g8
S'_Library_Python_2_7_site-packages_pg_catalog_pg_attribute.html'
p275
sg10
S'/Library/Python/2.7/site-packages/pg_catalog/pg_attribute'
p276
sg12
g13
(g14
g15
NtRp277
(dp278
g18
I1
sg19
I0
sg20
I23
sg21
I0
sg22
I0
sg23
I10
sg24
I0
sbssg25
S'\xd0\xfb\xee\xddb%\xf9T\xb9\xb7\xcf\\\xb0\xbd\x10,'
p279
ssS'_Library_Python_2_7_site-packages_pgit_postgresql_cls_constraint'
p280
(dp281
g6
(dp282
g8
S'_Library_Python_2_7_site-packages_pgit_postgresql_cls_constraint.html'
p283
sg10
S'/Library/Python/2.7/site-packages/pgit/postgresql/cls/constraint'
p284
sg12
g13
(g14
g15
NtRp285
(dp286
g18
I1
sg19
I0
sg20
I17
sg21
I0
sg22
I0
sg23
I4
sg24
I0
sbssg25
S'\x94\xb8x\xbe\xe3;x\xed\xb1\xd2\x9e\x02<\xdc\xf7T'
p287
ssS'_Library_Python_2_7_site-packages_SQLAlchemy-0_8_0b1dev-py2_7-macosx-10_7-intel_egg_sqlalchemy_engine_strategies'
p288
(dp289
g6
(dp290
g8
S'_Library_Python_2_7_site-packages_SQLAlchemy-0_8_0b1dev-py2_7-macosx-10_7-intel_egg_sqlalchemy_engine_strategies.html'
p291
sg10
S'/Library/Python/2.7/site-packages/SQLAlchemy-0.8.0b1dev-py2.7-macosx-10.7-intel.egg/sqlalchemy/engine/strategies'
p292
sg12
g13
(g14
g15
NtRp293
(dp294
g18
I1
sg19
I0
sg20
I123
sg21
I0
sg22
I0
sg23
I87
sg24
I0
sbssg25
S'K\x1c\x13\xe1\x15\xf1\xe5\xe9DI\xbf&\x1b\x0f\xfeL'
p295
ssS'_Library_Python_2_7_site-packages_SQLAlchemy-0_8_0b2-py2_7-macosx-10_7-intel_egg_sqlalchemy_orm_query'
p296
(dp297
g29
(dp298
g31
S'_Library_Python_2_7_site-packages_SQLAlchemy-0_8_0b2-py2_7-macosx-10_7-intel_egg_sqlalchemy_orm_query.html'
p299
sg33
S'/Library/Python/2.7/site-packages/SQLAlchemy-0.8.0b2-py2.7-macosx-10.7-intel.egg/sqlalchemy/orm/query'
p300
sg35
g13
(g14
g15
NtRp301
(dp302
g18
I1
sg19
I0
sg20
I980
sg21
I0
sg22
I0
sg23
I776
sg24
I0
sbssg38
S'\xa9$\xb9\x9a\xcc\xe9;\xe3\xb0\xe3(?\x19\xf9\xd9\xba'
p303
ssS'_Library_Python_2_7_site-packages_SQLAlchemy-0_8_0b1dev-py2_7-macosx-10_7-intel_egg_sqlalchemy_engine_threadlocal'
p304
(dp305
g6
(dp306
g8
S'_Library_Python_2_7_site-packages_SQLAlchemy-0_8_0b1dev-py2_7-macosx-10_7-intel_egg_sqlalchemy_engine_threadlocal.html'
p307
sg10
S'/Library/Python/2.7/site-packages/SQLAlchemy-0.8.0b1dev-py2.7-macosx-10.7-intel.egg/sqlalchemy/engine/threadlocal'
p308
sg12
g13
(g14
g15
NtRp309
(dp310
g18
I1
sg19
I0
sg20
I80
sg21
I0
sg22
I0
sg23
I55
sg24
I0
sbssg25
S'\xe2\x05B:A\x07l\x86QIy\x00\x1c\xbbT\xec'
p311
ssS'_Library_Python_2_7_site-packages_nose_config'
p312
(dp313
g6
(dp314
g8
S'_Library_Python_2_7_site-packages_nose_config.html'
p315
sg10
S'/Library/Python/2.7/site-packages/nose/config'
p316
sg12
g13
(g14
g15
NtRp317
(dp318
g18
I1
sg19
I0
sg20
I335
sg21
I0
sg22
I0
sg23
I132
sg24
I0
sbssg25
S'\x0b)\xb9\x9f\xed]g;\xc7\xd1\x1b\rR\x80yA'
p319
ssS'_Library_Python_2_7_site-packages_SQLAlchemy-0_8_0b1dev-py2_7-macosx-10_7-intel_egg_sqlalchemy_exc'
p320
(dp321
g6
(dp322
g8
S'_Library_Python_2_7_site-packages_SQLAlchemy-0_8_0b1dev-py2_7-macosx-10_7-intel_egg_sqlalchemy_exc.html'
p323
sg10
S'/Library/Python/2.7/site-packages/SQLAlchemy-0.8.0b1dev-py2.7-macosx-10.7-intel.egg/sqlalchemy/exc'
p324
sg12
g13
(g14
g15
NtRp325
(dp326
g18
I1
sg19
I0
sg20
I95
sg21
I0
sg22
I0
sg23
I40
sg24
I0
sbssg25
S'\x91\xaa\x94LWm\xe41\xd6zs\xd6\xc6>q-'
p327
ssS'_Library_Python_2_7_site-packages_SQLAlchemy-0_8_0b1dev-py2_7-macosx-10_7-intel_egg_sqlalchemy_orm_dependency'
p328
(dp329
g6
(dp330
g8
S'_Library_Python_2_7_site-packages_SQLAlchemy-0_8_0b1dev-py2_7-macosx-10_7-intel_egg_sqlalchemy_orm_dependency.html'
p331
sg10
S'/Library/Python/2.7/site-packages/SQLAlchemy-0.8.0b1dev-py2.7-macosx-10.7-intel.egg/sqlalchemy/orm/dependency'
p332
sg12
g13
(g14
g15
NtRp333
(dp334
g18
I1
sg19
I0
sg20
I473
sg21
I0
sg22
I0
sg23
I410
sg24
I0
sbssg25
S'\x11Q\x1cy*\xde\x9b\x9e\xd6\xedP\x96\xd2\xbc\x8e\xdd'
p335
ssS'_Library_Python_2_7_site-packages_SQLAlchemy-0_8_0b1dev-py2_7-macosx-10_7-intel_egg_sqlalchemy_sql_compiler'
p336
(dp337
g6
(dp338
g8
S'_Library_Python_2_7_site-packages_SQLAlchemy-0_8_0b1dev-py2_7-macosx-10_7-intel_egg_sqlalchemy_sql_compiler.html'
p339
sg10
S'/Library/Python/2.7/site-packages/SQLAlchemy-0.8.0b1dev-py2.7-macosx-10.7-intel.egg/sqlalchemy/sql/compiler'
p340
sg12
g13
(g14
g15
NtRp341
(dp342
g18
I1
sg19
I0
sg20
I1022
sg21
I0
sg22
I0
sg23
I823
sg24
I0
sbssg25
S'\x8e\x95H\x9fK\x9f\xb3\xff\xf5(\xc8L\x8d7\x08\xef'
p343
ssS'_Library_Python_2_7_site-packages_pg_catalog_fk'
p344
(dp345
g6
(dp346
g8
S'_Library_Python_2_7_site-packages_pg_catalog_fk.html'
p347
sg10
S'/Library/Python/2.7/site-packages/pg_catalog/fk'
p348
sg12
g13
(g14
g15
NtRp349
(dp350
g18
I1
sg19
I0
sg20
I66
sg21
I0
sg22
I0
sg23
I9
sg24
I0
sbssg25
S'\xec\xbe^\xae3E\xe1v\xf2!\xec\xb2A\x825\x82'
p351
ssS'_Library_Python_2_7_site-packages_SQLAlchemy-0_8_0b1dev-py2_7-macosx-10_7-intel_egg_sqlalchemy_events'
p352
(dp353
g6
(dp354
g8
S'_Library_Python_2_7_site-packages_SQLAlchemy-0_8_0b1dev-py2_7-macosx-10_7-intel_egg_sqlalchemy_events.html'
p355
sg10
S'/Library/Python/2.7/site-packages/SQLAlchemy-0.8.0b1dev-py2.7-macosx-10.7-intel.egg/sqlalchemy/events'
p356
sg12
g13
(g14
g15
NtRp357
(dp358
g18
I1
sg19
I0
sg20
I69
sg21
I0
sg22
I0
sg23
I26
sg24
I0
sbssg25
S'P\xc1=\x81S\xcb\x85\xaeT\x8f\xf5R\xe9\x18\xa7\xd4'
p359
ssS'_Library_Python_2_7_site-packages_SQLAlchemy-0_8_0b1dev-py2_7-macosx-10_7-intel_egg_sqlalchemy_orm___init__'
p360
(dp361
g6
(dp362
g8
S'_Library_Python_2_7_site-packages_SQLAlchemy-0_8_0b1dev-py2_7-macosx-10_7-intel_egg_sqlalchemy_orm___init__.html'
p363
sg10
S'/Library/Python/2.7/site-packages/SQLAlchemy-0.8.0b1dev-py2.7-macosx-10.7-intel.egg/sqlalchemy/orm/__init__'
p364
sg12
g13
(g14
g15
NtRp365
(dp366
g18
I1
sg19
I0
sg20
I97
sg21
I0
sg22
I0
sg23
I48
sg24
I0
sbssg25
S'\xe4\r\xf4im\xea\x8f-\xd4D\x99\x1d\xe4\x10\xd9\x96'
p367
ssS'_Library_Python_2_7_site-packages_nose_plugins_isolate'
p368
(dp369
g6
(dp370
g8
S'_Library_Python_2_7_site-packages_nose_plugins_isolate.html'
p371
sg10
S'/Library/Python/2.7/site-packages/nose/plugins/isolate'
p372
sg12
g13
(g14
g15
NtRp373
(dp374
g18
I1
sg19
I0
sg20
I34
sg21
I0
sg22
I0
sg23
I20
sg24
I0
sbssg25
S'\xb1\xd6^k\xc5?\xb3N\x05\x8b\xbb\xefV\xfeF\xf6'
p375
ssS'_Library_Python_2_7_site-packages_SQLAlchemy-0_8_0b1dev-py2_7-macosx-10_7-intel_egg_sqlalchemy_engine___init__'
p376
(dp377
g6
(dp378
g8
S'_Library_Python_2_7_site-packages_SQLAlchemy-0_8_0b1dev-py2_7-macosx-10_7-intel_egg_sqlalchemy_engine___init__.html'
p379
sg10
S'/Library/Python/2.7/site-packages/SQLAlchemy-0.8.0b1dev-py2.7-macosx-10.7-intel.egg/sqlalchemy/engine/__init__'
p380
sg12
g13
(g14
g15
NtRp381
(dp382
g18
I1
sg19
I0
sg20
I17
sg21
I0
sg22
I0
sg23
I7
sg24
I0
sbssg25
S'\xd3\x1aq)\x07\xac\xb6\xf4!\xf1\x96\x03\x0c\xc0\x8a\xed'
p383
ssS'_Library_Python_2_7_site-packages_SQLAlchemy-0_8_0b1dev-py2_7-macosx-10_7-intel_egg_sqlalchemy_orm_properties'
p384
(dp385
g6
(dp386
g8
S'_Library_Python_2_7_site-packages_SQLAlchemy-0_8_0b1dev-py2_7-macosx-10_7-intel_egg_sqlalchemy_orm_properties.html'
p387
sg10
S'/Library/Python/2.7/site-packages/SQLAlchemy-0.8.0b1dev-py2.7-macosx-10.7-intel.egg/sqlalchemy/orm/properties'
p388
sg12
g13
(g14
g15
NtRp389
(dp390
g18
I1
sg19
I0
sg20
I453
sg21
I0
sg22
I0
sg23
I358
sg24
I0
sbssg25
S'\xb1I\x9a\xd3\xd1\xa6\xf2\xb0\x85v\xd9\x81\xdb\xafy_'
p391
ssS'_Library_Python_2_7_site-packages_SQLAlchemy-0_8_0b1dev-py2_7-macosx-10_7-intel_egg_sqlalchemy_engine_base'
p392
(dp393
g6
(dp394
g8
S'_Library_Python_2_7_site-packages_SQLAlchemy-0_8_0b1dev-py2_7-macosx-10_7-intel_egg_sqlalchemy_engine_base.html'
p395
sg10
S'/Library/Python/2.7/site-packages/SQLAlchemy-0.8.0b1dev-py2.7-macosx-10.7-intel.egg/sqlalchemy/engine/base'
p396
sg12
g13
(g14
g15
NtRp397
(dp398
g18
I1
sg19
I0
sg20
I578
sg21
I0
sg22
I0
sg23
I465
sg24
I0
sbssg25
S'\xd3\xffw\x144\x1e%GJ\x10>B\n\xbf[f'
p399
ssS'_Library_Python_2_7_site-packages_SQLAlchemy-0_8_0b1dev-py2_7-macosx-10_7-intel_egg_sqlalchemy_engine_util'
p400
(dp401
g6
(dp402
g8
S'_Library_Python_2_7_site-packages_SQLAlchemy-0_8_0b1dev-py2_7-macosx-10_7-intel_egg_sqlalchemy_engine_util.html'
p403
sg10
S'/Library/Python/2.7/site-packages/SQLAlchemy-0.8.0b1dev-py2.7-macosx-10.7-intel.egg/sqlalchemy/engine/util'
p404
sg12
g13
(g14
g15
NtRp405
(dp406
g18
I1
sg19
I0
sg20
I38
sg21
I0
sg22
I0
sg23
I32
sg24
I0
sbssg25
S'\x8fe[\xba\x93\xaa:\x06Y\xa6\xb0\xde\xc0\xcb(`'
p407
ssS'_Library_Python_2_7_site-packages_pgit_postgresql___init__'
p408
(dp409
g6
(dp410
g8
S'_Library_Python_2_7_site-packages_pgit_postgresql___init__.html'
p411
sg10
S'/Library/Python/2.7/site-packages/pgit/postgresql/__init__'
p412
sg12
g13
(g14
g15
NtRp413
(dp414
g18
I1
sg19
I0
sg20
I2
sg21
I0
sg22
I0
sg23
I0
sg24
I0
sbssg25
S'\x1d\xda\xa3\xb6x\x92\xa1\x1d\x9e\x1d)\x0bfe\xbc7'
p415
ssS'_Library_Python_2_7_site-packages_SQLAlchemy-0_8_0b1dev-py2_7-macosx-10_7-intel_egg_sqlalchemy_orm_interfaces'
p416
(dp417
g6
(dp418
g8
S'_Library_Python_2_7_site-packages_SQLAlchemy-0_8_0b1dev-py2_7-macosx-10_7-intel_egg_sqlalchemy_orm_interfaces.html'
p419
sg10
S'/Library/Python/2.7/site-packages/SQLAlchemy-0.8.0b1dev-py2.7-macosx-10.7-intel.egg/sqlalchemy/orm/interfaces'
p420
sg12
g13
(g14
g15
NtRp421
(dp422
g18
I1
sg19
I0
sg20
I259
sg21
I0
sg22
I0
sg23
I156
sg24
I0
sbssg25
S'\x8e\xd5/\xc4\xb5\xfbQ\xd5\xb6\xe3\x8b[x\xf66\xef'
p423
ssS'_Library_Python_2_7_site-packages_SQLAlchemy-0_8_0b1dev-py2_7-macosx-10_7-intel_egg_sqlalchemy_util_deprecations'
p424
(dp425
g6
(dp426
g8
S'_Library_Python_2_7_site-packages_SQLAlchemy-0_8_0b1dev-py2_7-macosx-10_7-intel_egg_sqlalchemy_util_deprecations.html'
p427
sg10
S'/Library/Python/2.7/site-packages/SQLAlchemy-0.8.0b1dev-py2.7-macosx-10.7-intel.egg/sqlalchemy/util/deprecations'
p428
sg12
g13
(g14
g15
NtRp429
(dp430
g18
I1
sg19
I0
sg20
I55
sg21
I0
sg22
I0
sg23
I6
sg24
I0
sbssg25
S'\xb0\x0cU=\x17%\x89\xad>Z\x0cy\x9e\x0c\\\xf3'
p431
ssS'_Library_Python_2_7_site-packages_pg_catalog_pg_rewrite'
p432
(dp433
g6
(dp434
g8
S'_Library_Python_2_7_site-packages_pg_catalog_pg_rewrite.html'
p435
sg10
S'/Library/Python/2.7/site-packages/pg_catalog/pg_rewrite'
p436
sg12
g13
(g14
g15
NtRp437
(dp438
g18
I1
sg19
I0
sg20
I11
sg21
I0
sg22
I0
sg23
I0
sg24
I0
sbssg25
S'\xfa\x8a\xd2\x81\t1\x8c\xe4&\xd7\xdf"\x13qy\xbc'
p439
ssS'_Library_Python_2_7_site-packages_SQLAlchemy-0_8_0b1dev-py2_7-macosx-10_7-intel_egg_sqlalchemy_orm_util'
p440
(dp441
g6
(dp442
g8
S'_Library_Python_2_7_site-packages_SQLAlchemy-0_8_0b1dev-py2_7-macosx-10_7-intel_egg_sqlalchemy_orm_util.html'
p443
sg10
S'/Library/Python/2.7/site-packages/SQLAlchemy-0.8.0b1dev-py2.7-macosx-10.7-intel.egg/sqlalchemy/orm/util'
p444
sg12
g13
(g14
g15
NtRp445
(dp446
g18
I1
sg19
I0
sg20
I418
sg21
I0
sg22
I0
sg23
I301
sg24
I0
sbssg25
S'\xc0\xd4\xb8\xa9\xae\xec\x03r\x1d\xb1{u\x80\xe9\xab\x8a'
p447
ssS'_Library_Python_2_7_site-packages_nose_inspector'
p448
(dp449
g6
(dp450
g8
S'_Library_Python_2_7_site-packages_nose_inspector.html'
p451
sg10
S'/Library/Python/2.7/site-packages/nose/inspector'
p452
sg12
g13
(g14
g15
NtRp453
(dp454
g18
I1
sg19
I0
sg20
I122
sg21
I0
sg22
I0
sg23
I107
sg24
I0
sbssg25
S'nB\x13\x83\x83\x8eh\xeb\x9d\xe3\x8f\xb5<\xcb\xb1\x9e'
p455
ssS'_Library_Python_2_7_site-packages_pg_catalog_pg_enum'
p456
(dp457
g6
(dp458
g8
S'_Library_Python_2_7_site-packages_pg_catalog_pg_enum.html'
p459
sg10
S'/Library/Python/2.7/site-packages/pg_catalog/pg_enum'
p460
sg12
g13
(g14
g15
NtRp461
(dp462
g18
I1
sg19
I0
sg20
I7
sg21
I0
sg22
I0
sg23
I0
sg24
I0
sbssg25
S'\xa6\xeb\xea\xab\x85\x18\xceR:\x88\rQ{\xef\x00n'
p463
ssS'package_classes'
p464
(dp465
g6
(dp466
g8
S'package_classes.html'
p467
sg10
S'package/classes'
p468
sg12
g13
(g14
g15
NtRp469
(dp470
g18
I1
sg19
I0
sg20
I15
sg21
I0
sg22
I0
sg23
I11
sg24
I0
sbssg25
S'n\xa0\xcf]\x83\x80\xf1Jc\x90\xcd\xe3L\xfe\xfd\x0f'
p471
ssS'_Library_Python_2_7_site-packages_SQLAlchemy-0_8_0b2-py2_7-macosx-10_7-intel_egg_sqlalchemy_orm_instrumentation'
p472
(dp473
g29
(dp474
g31
S'_Library_Python_2_7_site-packages_SQLAlchemy-0_8_0b2-py2_7-macosx-10_7-intel_egg_sqlalchemy_orm_instrumentation.html'
p475
sg33
S'/Library/Python/2.7/site-packages/SQLAlchemy-0.8.0b2-py2.7-macosx-10.7-intel.egg/sqlalchemy/orm/instrumentation'
p476
sg35
g13
(g14
g15
NtRp477
(dp478
g18
I1
sg19
I0
sg20
I207
sg21
I0
sg22
I0
sg23
I79
sg24
I0
sbssg38
S'o\x90\r\x8f\xb4\x82|\xd0\xe2\x11B\x08\xe8]\xa0\xa3'
p479
ssS'_Library_Python_2_7_site-packages_SQLAlchemy-0_8_0b2-py2_7-macosx-10_7-intel_egg_sqlalchemy_sql_operators'
p480
(dp481
g29
(dp482
g31
S'_Library_Python_2_7_site-packages_SQLAlchemy-0_8_0b2-py2_7-macosx-10_7-intel_egg_sqlalchemy_sql_operators.html'
p483
sg33
S'/Library/Python/2.7/site-packages/SQLAlchemy-0.8.0b2-py2.7-macosx-10.7-intel.egg/sqlalchemy/sql/operators'
p484
sg35
g13
(g14
g15
NtRp485
(dp486
g18
I1
sg19
I0
sg20
I191
sg21
I0
sg22
I0
sg23
I83
sg24
I0
sbssg38
S'\xa2\x9e\x0e^\xb8\xfc\xa8\xb3\xba \xad"\xe6h,Y'
p487
ssS'_Library_Python_2_7_site-packages_SQLAlchemy-0_8_0b2-py2_7-macosx-10_7-intel_egg_sqlalchemy_log'
p488
(dp489
g29
(dp490
g31
S'_Library_Python_2_7_site-packages_SQLAlchemy-0_8_0b2-py2_7-macosx-10_7-intel_egg_sqlalchemy_log.html'
p491
sg33
S'/Library/Python/2.7/site-packages/SQLAlchemy-0.8.0b2-py2.7-macosx-10.7-intel.egg/sqlalchemy/log'
p492
sg35
g13
(g14
g15
NtRp493
(dp494
g18
I1
sg19
I0
sg20
I82
sg21
I0
sg22
I0
sg23
I44
sg24
I0
sbssg38
S'\xc5\xee\x8e\x81\xef(\xa6\xdd{qN\xc0\xd6\x8bc\xbe'
p495
ssS'_Library_Python_2_7_site-packages_nose_plugins_multiprocess'
p496
(dp497
g6
(dp498
g8
S'_Library_Python_2_7_site-packages_nose_plugins_multiprocess.html'
p499
sg10
S'/Library/Python/2.7/site-packages/nose/plugins/multiprocess'
p500
sg12
g13
(g14
g15
NtRp501
(dp502
g18
I1
sg19
I0
sg20
I483
sg21
I0
sg22
I0
sg23
I403
sg24
I0
sbssg25
S'\x07=p&\x03\xd4\x0e{\xf5;\xb9\xdb\x1d\xd6\xa8Q'
p503
ssS'_Library_Python_2_7_site-packages_SQLAlchemy-0_8_0b1dev-py2_7-macosx-10_7-intel_egg_sqlalchemy_dialects_postgresql_pypostgresql'
p504
(dp505
g6
(dp506
g8
S'_Library_Python_2_7_site-packages_SQLAlchemy-0_8_0b1dev-py2_7-macosx-10_7-intel_egg_sqlalchemy_dialects_postgresql_pypostgresql.html'
p507
sg10
S'/Library/Python/2.7/site-packages/SQLAlchemy-0.8.0b1dev-py2.7-macosx-10.7-intel.egg/sqlalchemy/dialects/postgresql/pypostgresql'
p508
sg12
g13
(g14
g15
NtRp509
(dp510
g18
I1
sg19
I0
sg20
I37
sg21
I0
sg22
I0
sg23
I13
sg24
I0
sbssg25
S'#\xae\xc6\xe5\x1f\xd8p\xd6\n\xa9\xd4`\xb0\x1a2\x01'
p511
ssS'_Library_Python_2_7_site-packages_SQLAlchemy-0_8_0b2-py2_7-macosx-10_7-intel_egg_sqlalchemy_interfaces'
p512
(dp513
g29
(dp514
g31
S'_Library_Python_2_7_site-packages_SQLAlchemy-0_8_0b2-py2_7-macosx-10_7-intel_egg_sqlalchemy_interfaces.html'
p515
sg33
S'/Library/Python/2.7/site-packages/SQLAlchemy-0.8.0b2-py2.7-macosx-10.7-intel.egg/sqlalchemy/interfaces'
p516
sg35
g13
(g14
g15
NtRp517
(dp518
g18
I1
sg19
I0
sg20
I69
sg21
I0
sg22
I0
sg23
I47
sg24
I0
sbssg38
S'\xf0\xdb}\xbag\xc1\xbd \xa4\xc8x(8r\x9dh'
p519
ssS'_Library_Python_2_7_site-packages_pg_catalog_pg_aggregate'
p520
(dp521
g6
(dp522
g8
S'_Library_Python_2_7_site-packages_pg_catalog_pg_aggregate.html'
p523
sg10
S'/Library/Python/2.7/site-packages/pg_catalog/pg_aggregate'
p524
sg12
g13
(g14
g15
NtRp525
(dp526
g18
I1
sg19
I0
sg20
I14
sg21
I0
sg22
I0
sg23
I0
sg24
I0
sbssg25
S'<\xe4L8\xbc\xfdw\x91\xabgh"\xa2\xc9\xf0X'
p527
ssS'_Library_Python_2_7_site-packages_nose_plugins_plugintest'
p528
(dp529
g6
(dp530
g8
S'_Library_Python_2_7_site-packages_nose_plugins_plugintest.html'
p531
sg10
S'/Library/Python/2.7/site-packages/nose/plugins/plugintest'
p532
sg12
g13
(g14
g15
NtRp533
(dp534
g18
I1
sg19
I0
sg20
I155
sg21
I0
sg22
I0
sg23
I111
sg24
I0
sbssg25
S'\xe6q\xeb!z\xea\x11\x88\x99\xa5\xc6\x94\xc6\xc8\x8a"'
p535
ssS'_Library_Python_2_7_site-packages_SQLAlchemy-0_8_0b2-py2_7-macosx-10_7-intel_egg_sqlalchemy_orm_properties'
p536
(dp537
g29
(dp538
g31
S'_Library_Python_2_7_site-packages_SQLAlchemy-0_8_0b2-py2_7-macosx-10_7-intel_egg_sqlalchemy_orm_properties.html'
p539
sg33
S'/Library/Python/2.7/site-packages/SQLAlchemy-0.8.0b2-py2.7-macosx-10.7-intel.egg/sqlalchemy/orm/properties'
p540
sg35
g13
(g14
g15
NtRp541
(dp542
g18
I1
sg19
I0
sg20
I471
sg21
I0
sg22
I0
sg23
I371
sg24
I0
sbssg38
S'(Q\x90\n\xc2\x9e\xf7\xb4\xa0\x96\x88\x99\xf3\x14\xa2\x14'
p543
ssS'_Library_Python_2_7_site-packages_pgit_postgresql_cls_regtype___init__'
p544
(dp545
g6
(dp546
g8
S'_Library_Python_2_7_site-packages_pgit_postgresql_cls_regtype___init__.html'
p547
sg10
S'/Library/Python/2.7/site-packages/pgit/postgresql/cls/regtype/__init__'
p548
sg12
g13
(g14
g15
NtRp549
(dp550
g18
I1
sg19
I0
sg20
I49
sg21
I0
sg22
I0
sg23
I31
sg24
I0
sbssg25
S'n\xcc\xc7Jm7p\x8dY\xcf\n\xac:^-\xd6'
p551
ssS'_Library_Python_2_7_site-packages_SQLAlchemy-0_8_0b1dev-py2_7-macosx-10_7-intel_egg_sqlalchemy_orm_persistence'
p552
(dp553
g6
(dp554
g8
S'_Library_Python_2_7_site-packages_SQLAlchemy-0_8_0b1dev-py2_7-macosx-10_7-intel_egg_sqlalchemy_orm_persistence.html'
p555
sg10
S'/Library/Python/2.7/site-packages/SQLAlchemy-0.8.0b1dev-py2.7-macosx-10.7-intel.egg/sqlalchemy/orm/persistence'
p556
sg12
g13
(g14
g15
NtRp557
(dp558
g18
I1
sg19
I0
sg20
I415
sg21
I0
sg22
I0
sg23
I358
sg24
I0
sbssg25
S"+\x81\x01\xb0'3\xb5v\xads\xfa\xb9\xa9R\xd6\xd7"
p559
ssS'_Library_Python_2_7_site-packages_nose_tools_nontrivial'
p560
(dp561
g6
(dp562
g8
S'_Library_Python_2_7_site-packages_nose_tools_nontrivial.html'
p563
sg10
S'/Library/Python/2.7/site-packages/nose/tools/nontrivial'
p564
sg12
g13
(g14
g15
NtRp565
(dp566
g18
I1
sg19
I0
sg20
I79
sg21
I0
sg22
I0
sg23
I68
sg24
I0
sbssg25
S'j\xbe\xf0\x001=X\xb3w\xc1\x00\xf6\xe7\xc6~\xa1'
p567
ssS'_Library_Python_2_7_site-packages_SQLAlchemy-0_8_0b1dev-py2_7-macosx-10_7-intel_egg_sqlalchemy_engine_reflection'
p568
(dp569
g6
(dp570
g8
S'_Library_Python_2_7_site-packages_SQLAlchemy-0_8_0b1dev-py2_7-macosx-10_7-intel_egg_sqlalchemy_engine_reflection.html'
p571
sg10
S'/Library/Python/2.7/site-packages/SQLAlchemy-0.8.0b1dev-py2.7-macosx-10.7-intel.egg/sqlalchemy/engine/reflection'
p572
sg12
g13
(g14
g15
NtRp573
(dp574
g18
I1
sg19
I0
sg20
I157
sg21
I0
sg22
I0
sg23
I130
sg24
I0
sbssg25
S'\xe5\x99zV\x7f}T\xd6O\xe1\x86\xc9\xf9\x1a\xb5Q'
p575
ssS'_Library_Python_2_7_site-packages_SQLAlchemy-0_8_0b2-py2_7-macosx-10_7-intel_egg_sqlalchemy_sql___init__'
p576
(dp577
g29
(dp578
g31
S'_Library_Python_2_7_site-packages_SQLAlchemy-0_8_0b2-py2_7-macosx-10_7-intel_egg_sqlalchemy_sql___init__.html'
p579
sg33
S'/Library/Python/2.7/site-packages/SQLAlchemy-0.8.0b2-py2.7-macosx-10.7-intel.egg/sqlalchemy/sql/__init__'
p580
sg35
g13
(g14
g15
NtRp581
(dp582
g18
I1
sg19
I0
sg20
I4
sg21
I0
sg22
I0
sg23
I0
sg24
I0
sbssg38
S'p\xec\x12\xb4?k\xda\xd6\x07v\x99\xcf(\xa4\x8c\xcc'
p583
ssS'_Library_Python_2_7_site-packages_SQLAlchemy-0_8_0b1dev-py2_7-macosx-10_7-intel_egg_sqlalchemy_util_compat'
p584
(dp585
g6
(dp586
g8
S'_Library_Python_2_7_site-packages_SQLAlchemy-0_8_0b1dev-py2_7-macosx-10_7-intel_egg_sqlalchemy_util_compat.html'
p587
sg10
S'/Library/Python/2.7/site-packages/SQLAlchemy-0.8.0b1dev-py2.7-macosx-10.7-intel.egg/sqlalchemy/util/compat'
p588
sg12
g13
(g14
g15
NtRp589
(dp590
g18
I1
sg19
I0
sg20
I192
sg21
I0
sg22
I0
sg23
I126
sg24
I0
sbssg25
S'!\xb7b\x15\x9dU_\xce\x81\x8e\xd7ET?2!'
p591
ssS'_Library_Python_2_7_site-packages_SQLAlchemy-0_8_0b2-py2_7-macosx-10_7-intel_egg_sqlalchemy_util___init__'
p592
(dp593
g29
(dp594
g31
S'_Library_Python_2_7_site-packages_SQLAlchemy-0_8_0b2-py2_7-macosx-10_7-intel_egg_sqlalchemy_util___init__.html'
p595
sg33
S'/Library/Python/2.7/site-packages/SQLAlchemy-0.8.0b2-py2.7-macosx-10.7-intel.egg/sqlalchemy/util/__init__'
p596
sg35
g13
(g14
g15
NtRp597
(dp598
g18
I1
sg19
I0
sg20
I4
sg21
I0
sg22
I0
sg23
I0
sg24
I0
sbssg38
S'.\xab\xde\xe3!d\xab",\xcdc\xfd\xa9\'#1'
p599
ssS'_Library_Python_2_7_site-packages_SQLAlchemy-0_8_0b2-py2_7-macosx-10_7-intel_egg_sqlalchemy_engine_reflection'
p600
(dp601
g29
(dp602
g31
S'_Library_Python_2_7_site-packages_SQLAlchemy-0_8_0b2-py2_7-macosx-10_7-intel_egg_sqlalchemy_engine_reflection.html'
p603
sg33
S'/Library/Python/2.7/site-packages/SQLAlchemy-0.8.0b2-py2.7-macosx-10.7-intel.egg/sqlalchemy/engine/reflection'
p604
sg35
g13
(g14
g15
NtRp605
(dp606
g18
I1
sg19
I0
sg20
I156
sg21
I0
sg22
I0
sg23
I129
sg24
I0
sbssg38
S'h\x98 \xaf\xe0j\xe8\xca\x05q\xa5 \xd0\x13\x90\xd8'
p607
ssS'_Library_Python_2_7_site-packages_SQLAlchemy-0_8_0b1dev-py2_7-macosx-10_7-intel_egg_sqlalchemy_ext_hybrid'
p608
(dp609
g6
(dp610
g8
S'_Library_Python_2_7_site-packages_SQLAlchemy-0_8_0b1dev-py2_7-macosx-10_7-intel_egg_sqlalchemy_ext_hybrid.html'
p611
sg10
S'/Library/Python/2.7/site-packages/SQLAlchemy-0.8.0b1dev-py2.7-macosx-10.7-intel.egg/sqlalchemy/ext/hybrid'
p612
sg12
g13
(g14
g15
NtRp613
(dp614
g18
I1
sg19
I0
sg20
I59
sg21
I0
sg22
I0
sg23
I31
sg24
I0
sbssg25
S'\x1cS\xcb\x9e/\x9c`gS\xaaBW \x0eB\xc8'
p615
ssS'_Library_Python_2_7_site-packages_SQLAlchemy-0_8_0b1dev-py2_7-macosx-10_7-intel_egg_sqlalchemy_util__collections'
p616
(dp617
g6
(dp618
g8
S'_Library_Python_2_7_site-packages_SQLAlchemy-0_8_0b1dev-py2_7-macosx-10_7-intel_egg_sqlalchemy_util__collections.html'
p619
sg10
S'/Library/Python/2.7/site-packages/SQLAlchemy-0.8.0b1dev-py2.7-macosx-10.7-intel.egg/sqlalchemy/util/_collections'
p620
sg12
g13
(g14
g15
NtRp621
(dp622
g18
I1
sg19
I0
sg20
I532
sg21
I0
sg22
I0
sg23
I287
sg24
I0
sbssg25
S'\xc2\x1e\xb9\x9a\xb86l\xc9$\xd9\x1cH\xa2Oy\x88'
p623
ssS'_Library_Python_2_7_site-packages_SQLAlchemy-0_8_0b2-py2_7-macosx-10_7-intel_egg_sqlalchemy_orm_scoping'
p624
(dp625
g29
(dp626
g31
S'_Library_Python_2_7_site-packages_SQLAlchemy-0_8_0b2-py2_7-macosx-10_7-intel_egg_sqlalchemy_orm_scoping.html'
p627
sg33
S'/Library/Python/2.7/site-packages/SQLAlchemy-0.8.0b2-py2.7-macosx-10.7-intel.egg/sqlalchemy/orm/scoping'
p628
sg35
g13
(g14
g15
NtRp629
(dp630
g18
I1
sg19
I0
sg20
I63
sg21
I0
sg22
I0
sg23
I35
sg24
I0
sbssg38
S'\r\xbb\xa0\xe3\xc8Mc\xd2\xe1\xf6_\x8dh\xf6.]'
p631
ssS'_Library_Python_2_7_site-packages_pg_catalog_pg_database'
p632
(dp633
g6
(dp634
g8
S'_Library_Python_2_7_site-packages_pg_catalog_pg_database.html'
p635
sg10
S'/Library/Python/2.7/site-packages/pg_catalog/pg_database'
p636
sg12
g13
(g14
g15
NtRp637
(dp638
g18
I1
sg19
I0
sg20
I6
sg21
I0
sg22
I0
sg23
I0
sg24
I0
sbssg25
S'\xf7\xd6\x94\xde\xd9\xbc>\xff\xfe\xf3\xf2\x02\x96\xb7xT'
p639
ssS'_Library_Python_2_7_site-packages_pgit_postgresql_cls_cls_base'
p640
(dp641
g6
(dp642
g8
S'_Library_Python_2_7_site-packages_pgit_postgresql_cls_cls_base.html'
p643
sg10
S'/Library/Python/2.7/site-packages/pgit/postgresql/cls/cls_base'
p644
sg12
g13
(g14
g15
NtRp645
(dp646
g18
I1
sg19
I0
sg20
I49
sg21
I0
sg22
I0
sg23
I31
sg24
I0
sbssg25
S'\xee\xc7d\xdc\x82l\xa4,\xb4\x97&\xb0\xb3\xc4H2'
p647
ssS'_Library_Python_2_7_site-packages_pg_catalog_pg_inherits'
p648
(dp649
g6
(dp650
g8
S'_Library_Python_2_7_site-packages_pg_catalog_pg_inherits.html'
p651
sg10
S'/Library/Python/2.7/site-packages/pg_catalog/pg_inherits'
p652
sg12
g13
(g14
g15
NtRp653
(dp654
g18
I1
sg19
I0
sg20
I7
sg21
I0
sg22
I0
sg23
I0
sg24
I0
sbssg25
S'p\xb0\x03\xd9P\xf5\xc3\xe6/r$M\x0b-\xef\xe4'
p655
ssS'_Library_Python_2_7_site-packages_SQLAlchemy-0_8_0b2-py2_7-macosx-10_7-intel_egg_sqlalchemy_cprocessors'
p656
(dp657
g29
(dp658
g31
S'_Library_Python_2_7_site-packages_SQLAlchemy-0_8_0b2-py2_7-macosx-10_7-intel_egg_sqlalchemy_cprocessors.html'
p659
sg33
S'/Library/Python/2.7/site-packages/SQLAlchemy-0.8.0b2-py2.7-macosx-10.7-intel.egg/sqlalchemy/cprocessors'
p660
sg35
g13
(g14
g15
NtRp661
(dp662
g18
I1
sg19
I0
sg20
I6
sg21
I0
sg22
I0
sg23
I0
sg24
I0
sbssg38
S'{\xeb\xf3\xbd\x13\xe7\xb8\xa4#\x06Kw\x982\xdcu'
p663
ssS'_Library_Python_2_7_site-packages_SQLAlchemy-0_8_0b2-py2_7-macosx-10_7-intel_egg_sqlalchemy_orm_identity'
p664
(dp665
g29
(dp666
g31
S'_Library_Python_2_7_site-packages_SQLAlchemy-0_8_0b2-py2_7-macosx-10_7-intel_egg_sqlalchemy_orm_identity.html'
p667
sg33
S'/Library/Python/2.7/site-packages/SQLAlchemy-0.8.0b2-py2.7-macosx-10.7-intel.egg/sqlalchemy/orm/identity'
p668
sg35
g13
(g14
g15
NtRp669
(dp670
g18
I1
sg19
I0
sg20
I156
sg21
I0
sg22
I0
sg23
I113
sg24
I0
sbssg38
S'\x92}\x8b\x17tB\x9e\xda06\xb4\x07\xdc8\xadA'
p671
ssS'_Library_Python_2_7_site-packages_SQLAlchemy-0_8_0b1dev-py2_7-macosx-10_7-intel_egg_sqlalchemy_orm_attributes'
p672
(dp673
g6
(dp674
g8
S'_Library_Python_2_7_site-packages_SQLAlchemy-0_8_0b1dev-py2_7-macosx-10_7-intel_egg_sqlalchemy_orm_attributes.html'
p675
sg10
S'/Library/Python/2.7/site-packages/SQLAlchemy-0.8.0b1dev-py2.7-macosx-10.7-intel.egg/sqlalchemy/orm/attributes'
p676
sg12
g13
(g14
g15
NtRp677
(dp678
g18
I1
sg19
I0
sg20
I584
sg21
I0
sg22
I0
sg23
I397
sg24
I0
sbssg25
S'Y\xa8\xebj\xd9\x9a\x88\xe0HQ\xd6\n\xcf\x17 \x87'
p679
ssS'_Library_Python_2_7_site-packages_SQLAlchemy-0_8_0b2-py2_7-macosx-10_7-intel_egg_sqlalchemy_schema'
p680
(dp681
g29
(dp682
g31
S'_Library_Python_2_7_site-packages_SQLAlchemy-0_8_0b2-py2_7-macosx-10_7-intel_egg_sqlalchemy_schema.html'
p683
sg33
S'/Library/Python/2.7/site-packages/SQLAlchemy-0.8.0b2-py2.7-macosx-10.7-intel.egg/sqlalchemy/schema'
p684
sg35
g13
(g14
g15
NtRp685
(dp686
g18
I1
sg19
I0
sg20
I1055
sg21
I0
sg22
I0
sg23
I542
sg24
I0
sbssg38
S'$\x03\x1fu\x06\x96\xf8\x1d}k\x81:\x81\xdf.\xee'
p687
ssS'_Library_Python_2_7_site-packages_SQLAlchemy-0_8_0b1dev-py2_7-macosx-10_7-intel_egg_sqlalchemy_dialects_postgresql_pg8000'
p688
(dp689
g6
(dp690
g8
S'_Library_Python_2_7_site-packages_SQLAlchemy-0_8_0b1dev-py2_7-macosx-10_7-intel_egg_sqlalchemy_dialects_postgresql_pg8000.html'
p691
sg10
S'/Library/Python/2.7/site-packages/SQLAlchemy-0.8.0b1dev-py2.7-macosx-10.7-intel.egg/sqlalchemy/dialects/postgresql/pg8000'
p692
sg12
g13
(g14
g15
NtRp693
(dp694
g18
I1
sg19
I0
sg20
I57
sg21
I0
sg22
I0
sg23
I25
sg24
I0
sbssg25
S'\x0f\x1buF\xd3\x02Zb~N\x1bq\x0f@\x98\xe0'
p695
ssS'_Library_Python_2_7_site-packages_SQLAlchemy-0_8_0b1dev-py2_7-macosx-10_7-intel_egg_sqlalchemy_log'
p696
(dp697
g6
(dp698
g8
S'_Library_Python_2_7_site-packages_SQLAlchemy-0_8_0b1dev-py2_7-macosx-10_7-intel_egg_sqlalchemy_log.html'
p699
sg10
S'/Library/Python/2.7/site-packages/SQLAlchemy-0.8.0b1dev-py2.7-macosx-10.7-intel.egg/sqlalchemy/log'
p700
sg12
g13
(g14
g15
NtRp701
(dp702
g18
I1
sg19
I0
sg20
I83
sg21
I0
sg22
I0
sg23
I44
sg24
I0
sbssg25
S"\xf5\xac\x16\x9c\xc9z\x89\x9a\xad(\x02\xcc\xf5'Q\x85"
p703
ssS'_Library_Python_2_7_site-packages_nose_case'
p704
(dp705
g6
(dp706
g8
S'_Library_Python_2_7_site-packages_nose_case.html'
p707
sg10
S'/Library/Python/2.7/site-packages/nose/case'
p708
sg12
g13
(g14
g15
NtRp709
(dp710
g18
I1
sg19
I0
sg20
I204
sg21
I0
sg22
I0
sg23
I100
sg24
I0
sbssg25
S'\xa3\xeb~L\x96\x18\xb8\xa1\xc5\x1b~\xe7kWY)'
p711
ssS'_Library_Python_2_7_site-packages_nose_plugins_logcapture'
p712
(dp713
g6
(dp714
g8
S'_Library_Python_2_7_site-packages_nose_plugins_logcapture.html'
p715
sg10
S'/Library/Python/2.7/site-packages/nose/plugins/logcapture'
p716
sg12
g13
(g14
g15
NtRp717
(dp718
g18
I1
sg19
I0
sg20
I123
sg21
I0
sg22
I0
sg23
I36
sg24
I0
sbssg25
S'I\x89\xb83\xbaA\xcc\xba<\x81\xe8!\x96\xaeU\xa1'
p719
ssS'_Library_Python_2_7_site-packages_pkg_resources'
p720
(dp721
g6
(dp722
S'html_filename'
p723
S'_Library_Python_2_7_site-packages_pkg_resources.html'
p724
sS'name'
p725
S'/Library/Python/2.7/site-packages/pkg_resources'
p726
sS'nums'
p727
g13
(g14
g15
NtRp728
(dp729
g18
I1
sg19
I0
sg20
I1247
sg21
I0
sg22
I0
sg23
I949
sg24
I0
sbssg25
S'p\x1d\x81\xd5d\xc7V\xf8+\xa2\xc9\x1e]:\xe8\xd7'
p730
ssS'_Library_Python_2_7_site-packages_pgit_postgresql_ddl_operator'
p731
(dp732
g6
(dp733
g8
S'_Library_Python_2_7_site-packages_pgit_postgresql_ddl_operator.html'
p734
sg10
S'/Library/Python/2.7/site-packages/pgit/postgresql/ddl/operator'
p735
sg12
g13
(g14
g15
NtRp736
(dp737
g18
I1
sg19
I0
sg20
I12
sg21
I0
sg22
I0
sg23
I5
sg24
I0
sbssg25
S'\n\xe50\xbd{\xfb\xad~&\xb2b\xf7U\xaah\xfe'
p738
ssS'_Library_Python_2_7_site-packages_pg_catalog_pg_foreign_table'
p739
(dp740
g6
(dp741
g8
S'_Library_Python_2_7_site-packages_pg_catalog_pg_foreign_table.html'
p742
sg10
S'/Library/Python/2.7/site-packages/pg_catalog/pg_foreign_table'
p743
sg12
g13
(g14
g15
NtRp744
(dp745
g18
I1
sg19
I0
sg20
I7
sg21
I0
sg22
I0
sg23
I0
sg24
I0
sbssg25
S'\xeaE\xfb\xd2\x01\x0c\x82~\xa70\xe1\x08\xe0\xd4\x11\xf0'
p746
ssS'_Library_Python_2_7_site-packages_SQLAlchemy-0_8_0b1dev-py2_7-macosx-10_7-intel_egg_sqlalchemy_sql_operators'
p747
(dp748
g6
(dp749
g8
S'_Library_Python_2_7_site-packages_SQLAlchemy-0_8_0b1dev-py2_7-macosx-10_7-intel_egg_sqlalchemy_sql_operators.html'
p750
sg10
S'/Library/Python/2.7/site-packages/SQLAlchemy-0.8.0b1dev-py2.7-macosx-10.7-intel.egg/sqlalchemy/sql/operators'
p751
sg12
g13
(g14
g15
NtRp752
(dp753
g18
I1
sg19
I0
sg20
I162
sg21
I0
sg22
I0
sg23
I71
sg24
I0
sbssg25
S'w\xb5] \xbc^h\x14;\xbb\xdbdK\x01\xc6\x07'
p754
ssS'_Library_Python_2_7_site-packages_lxml__elementpath'
p755
(dp756
g6
(dp757
g8
S'_Library_Python_2_7_site-packages_lxml__elementpath.html'
p758
sg10
S'/Library/Python/2.7/site-packages/lxml/_elementpath'
p759
sg12
g13
(g14
g15
NtRp760
(dp761
g18
I1
sg19
I0
sg20
I178
sg21
I0
sg22
I0
sg23
I162
sg24
I0
sbssg25
S'9k\xaa\xcd\xcb\xb7\x1f\xf1\x8f\x89pw%\xc9\xea\xf2'
p762
ssS'_Library_Python_2_7_site-packages_nosestatus-0_0_1-py2_7_egg_nosestatus_section'
p763
(dp764
g6
(dp765
g8
S'_Library_Python_2_7_site-packages_nosestatus-0_0_1-py2_7_egg_nosestatus_section.html'
p766
sg10
S'/Library/Python/2.7/site-packages/nosestatus-0.0.1-py2.7.egg/nosestatus/section'
p767
sg12
g13
(g14
g15
NtRp768
(dp769
g18
I1
sg19
I0
sg20
I35
sg21
I0
sg22
I0
sg23
I9
sg24
I0
sbssg25
S'Eq\x98\xc6\xb8\xce\xbd|\x99\n\xd2\xc7\xa3|\xe2\xd7'
p770
ssS'_Library_Python_2_7_site-packages_SQLAlchemy-0_8_0b1dev-py2_7-macosx-10_7-intel_egg_sqlalchemy_sql___init__'
p771
(dp772
g6
(dp773
g8
S'_Library_Python_2_7_site-packages_SQLAlchemy-0_8_0b1dev-py2_7-macosx-10_7-intel_egg_sqlalchemy_sql___init__.html'
p774
sg10
S'/Library/Python/2.7/site-packages/SQLAlchemy-0.8.0b1dev-py2.7-macosx-10.7-intel.egg/sqlalchemy/sql/__init__'
p775
sg12
g13
(g14
g15
NtRp776
(dp777
g18
I1
sg19
I0
sg20
I4
sg21
I0
sg22
I0
sg23
I0
sg24
I0
sbssg25
S'\x92T3\x10\xb9\x1c\xaa\xa5aq\xce@\x0c\r\xcd\xfe'
p778
ssS'_Library_Python_2_7_site-packages_pg_catalog_pg_proc'
p779
(dp780
g6
(dp781
g8
S'_Library_Python_2_7_site-packages_pg_catalog_pg_proc.html'
p782
sg10
S'/Library/Python/2.7/site-packages/pg_catalog/pg_proc'
p783
sg12
g13
(g14
g15
NtRp784
(dp785
g18
I1
sg19
I0
sg20
I20
sg21
I0
sg22
I0
sg23
I0
sg24
I0
sbssg25
S'\xd4\xa55\xda\xedx<\x11\x9f\x9f\xc2(\x9c\xde\x04p'
p786
ssS'_Library_Python_2_7_site-packages_SQLAlchemy-0_8_0b1dev-py2_7-macosx-10_7-intel_egg_sqlalchemy_orm_query'
p787
(dp788
g6
(dp789
g8
S'_Library_Python_2_7_site-packages_SQLAlchemy-0_8_0b1dev-py2_7-macosx-10_7-intel_egg_sqlalchemy_orm_query.html'
p790
sg10
S'/Library/Python/2.7/site-packages/SQLAlchemy-0.8.0b1dev-py2.7-macosx-10.7-intel.egg/sqlalchemy/orm/query'
p791
sg12
g13
(g14
g15
NtRp792
(dp793
g18
I1
sg19
I0
sg20
I976
sg21
I0
sg22
I0
sg23
I771
sg24
I0
sbssg25
S'\x99@\x91L\xf9\xd4\xe4\xa86V\x13L\x8a\xcf\xee3'
p794
ssS'_Library_Python_2_7_site-packages_SQLAlchemy-0_8_0b1dev-py2_7-macosx-10_7-intel_egg_sqlalchemy_orm_session'
p795
(dp796
g6
(dp797
g8
S'_Library_Python_2_7_site-packages_SQLAlchemy-0_8_0b1dev-py2_7-macosx-10_7-intel_egg_sqlalchemy_orm_session.html'
p798
sg10
S'/Library/Python/2.7/site-packages/SQLAlchemy-0.8.0b1dev-py2.7-macosx-10.7-intel.egg/sqlalchemy/orm/session'
p799
sg12
g13
(g14
g15
NtRp800
(dp801
g18
I1
sg19
I0
sg20
I684
sg21
I0
sg22
I0
sg23
I578
sg24
I0
sbssg25
S'\xee>\x0c]\xaa\xc9\x9dv\xb7\x94\x86\xe7\xef2[\xca'
p802
ssS'_Library_Python_2_7_site-packages_SQLAlchemy-0_8_0b2-py2_7-macosx-10_7-intel_egg_sqlalchemy_engine_url'
p803
(dp804
g29
(dp805
g31
S'_Library_Python_2_7_site-packages_SQLAlchemy-0_8_0b2-py2_7-macosx-10_7-intel_egg_sqlalchemy_engine_url.html'
p806
sg33
S'/Library/Python/2.7/site-packages/SQLAlchemy-0.8.0b2-py2.7-macosx-10.7-intel.egg/sqlalchemy/engine/url'
p807
sg35
g13
(g14
g15
NtRp808
(dp809
g18
I1
sg19
I0
sg20
I88
sg21
I0
sg22
I0
sg23
I73
sg24
I0
sbssg38
S'w\xba0\xac\xb2\xbd\xb7g<n<t.\xdc\x01\x0c'
p810
ssS'_Library_Python_2_7_site-packages_SQLAlchemy-0_8_0b2-py2_7-macosx-10_7-intel_egg_sqlalchemy_orm_state'
p811
(dp812
g29
(dp813
g31
S'_Library_Python_2_7_site-packages_SQLAlchemy-0_8_0b2-py2_7-macosx-10_7-intel_egg_sqlalchemy_orm_state.html'
p814
sg33
S'/Library/Python/2.7/site-packages/SQLAlchemy-0.8.0b2-py2.7-macosx-10.7-intel.egg/sqlalchemy/orm/state'
p815
sg35
g13
(g14
g15
NtRp816
(dp817
g18
I1
sg19
I0
sg20
I248
sg21
I0
sg22
I0
sg23
I175
sg24
I0
sbssg38
S'\x9c\xda\x9c\xc5JW6\xa7\x96\x05\xb0U\xe6\x1f\xef\xc2'
p818
ssS'_Library_Python_2_7_site-packages_SQLAlchemy-0_8_0b2-py2_7-macosx-10_7-intel_egg_sqlalchemy_cutils'
p819
(dp820
g29
(dp821
g31
S'_Library_Python_2_7_site-packages_SQLAlchemy-0_8_0b2-py2_7-macosx-10_7-intel_egg_sqlalchemy_cutils.html'
p822
sg33
S'/Library/Python/2.7/site-packages/SQLAlchemy-0.8.0b2-py2.7-macosx-10.7-intel.egg/sqlalchemy/cutils'
p823
sg35
g13
(g14
g15
NtRp824
(dp825
g18
I1
sg19
I0
sg20
I6
sg21
I0
sg22
I0
sg23
I0
sg24
I0
sbssg38
S'X;\xaf\xeb\xde\xbd3\xa8\x11\x18\xb4\xd4\xc3\x84JX'
p826
ssS'_Library_Python_2_7_site-packages_SQLAlchemy-0_8_0b1dev-py2_7-macosx-10_7-intel_egg_sqlalchemy_sql_functions'
p827
(dp828
g6
(dp829
g8
S'_Library_Python_2_7_site-packages_SQLAlchemy-0_8_0b1dev-py2_7-macosx-10_7-intel_egg_sqlalchemy_sql_functions.html'
p830
sg10
S'/Library/Python/2.7/site-packages/SQLAlchemy-0.8.0b1dev-py2.7-macosx-10.7-intel.egg/sqlalchemy/sql/functions'
p831
sg12
g13
(g14
g15
NtRp832
(dp833
g18
I1
sg19
I0
sg20
I78
sg21
I0
sg22
I0
sg23
I21
sg24
I0
sbssg25
S'\xde\xbeq\xcb\xbf\x05=\xf3(\xad3\x95\x12:\xef\xc7'
p834
ssS'_Library_Python_2_7_site-packages_pg_catalog_pg_cast'
p835
(dp836
g6
(dp837
g8
S'_Library_Python_2_7_site-packages_pg_catalog_pg_cast.html'
p838
sg10
S'/Library/Python/2.7/site-packages/pg_catalog/pg_cast'
p839
sg12
g13
(g14
g15
NtRp840
(dp841
g18
I1
sg19
I0
sg20
I9
sg21
I0
sg22
I0
sg23
I0
sg24
I0
sbssg25
S'\xde\xbby\x1f\xc5u\xfcE\xfc\xb5\x99\xc2\x03\xc5\x01\xf1'
p842
ssS'_Library_Python_2_7_site-packages_pg_catalog_pg_foreign_server'
p843
(dp844
g6
(dp845
g8
S'_Library_Python_2_7_site-packages_pg_catalog_pg_foreign_server.html'
p846
sg10
S'/Library/Python/2.7/site-packages/pg_catalog/pg_foreign_server'
p847
sg12
g13
(g14
g15
NtRp848
(dp849
g18
I1
sg19
I0
sg20
I9
sg21
I0
sg22
I0
sg23
I0
sg24
I0
sbssg25
S'\x0f\xab\xf5\n2l\x9f\xe8\x03hv\x0e\xf2,\xd9\x7f'
p850
ssS'_Library_Python_2_7_site-packages_nose_plugins_testid'
p851
(dp852
g6
(dp853
g8
S'_Library_Python_2_7_site-packages_nose_plugins_testid.html'
p854
sg10
S'/Library/Python/2.7/site-packages/nose/plugins/testid'
p855
sg12
g13
(g14
g15
NtRp856
(dp857
g18
I1
sg19
I0
sg20
I133
sg21
I0
sg22
I0
sg23
I95
sg24
I0
sbssg25
S'\xff/\xc7\x94\xb3n\xea\x0c\x90\xd8Z\xca\xd8\x8a\x12\xe7'
p858
ssS'_Library_Python_2_7_site-packages_SQLAlchemy-0_8_0b1dev-py2_7-macosx-10_7-intel_egg_sqlalchemy_orm_collections'
p859
(dp860
g6
(dp861
g8
S'_Library_Python_2_7_site-packages_SQLAlchemy-0_8_0b1dev-py2_7-macosx-10_7-intel_egg_sqlalchemy_orm_collections.html'
p862
sg10
S'/Library/Python/2.7/site-packages/SQLAlchemy-0.8.0b1dev-py2.7-macosx-10.7-intel.egg/sqlalchemy/orm/collections'
p863
sg12
g13
(g14
g15
NtRp864
(dp865
g18
I1
sg19
I0
sg20
I690
sg21
I0
sg22
I0
sg23
I400
sg24
I0
sbssg25
S'\xa1\xdb\x85\xf2\xd0(X\x88\xdc\xc5A\r\xd5\xed\xae\x01'
p866
ssS'_Library_Python_2_7_site-packages_SQLAlchemy-0_8_0b1dev-py2_7-macosx-10_7-intel_egg_sqlalchemy_util_queue'
p867
(dp868
g6
(dp869
g8
S'_Library_Python_2_7_site-packages_SQLAlchemy-0_8_0b1dev-py2_7-macosx-10_7-intel_egg_sqlalchemy_util_queue.html'
p870
sg10
S'/Library/Python/2.7/site-packages/SQLAlchemy-0.8.0b1dev-py2.7-macosx-10.7-intel.egg/sqlalchemy/util/queue'
p871
sg12
g13
(g14
g15
NtRp872
(dp873
g18
I1
sg19
I0
sg20
I109
sg21
I0
sg22
I0
sg23
I79
sg24
I0
sbssg25
S'&\xa2}\xa7\x9f1\xd0\x16fk\x98m`\xe6l\x18'
p874
ssS'_Library_Python_2_7_site-packages_SQLAlchemy-0_8_0b1dev-py2_7-macosx-10_7-intel_egg_sqlalchemy_cprocessors'
p875
(dp876
g6
(dp877
g8
S'_Library_Python_2_7_site-packages_SQLAlchemy-0_8_0b1dev-py2_7-macosx-10_7-intel_egg_sqlalchemy_cprocessors.html'
p878
sg10
S'/Library/Python/2.7/site-packages/SQLAlchemy-0.8.0b1dev-py2.7-macosx-10.7-intel.egg/sqlalchemy/cprocessors'
p879
sg12
g13
(g14
g15
NtRp880
(dp881
g18
I1
sg19
I0
sg20
I6
sg21
I0
sg22
I0
sg23
I0
sg24
I0
sbssg25
S'{\xeb\xf3\xbd\x13\xe7\xb8\xa4#\x06Kw\x982\xdcu'
p882
ssS'_Library_Python_2_7_site-packages_SQLAlchemy-0_8_0b1dev-py2_7-macosx-10_7-intel_egg_sqlalchemy_engine_ddl'
p883
(dp884
g6
(dp885
g8
S'_Library_Python_2_7_site-packages_SQLAlchemy-0_8_0b1dev-py2_7-macosx-10_7-intel_egg_sqlalchemy_engine_ddl.html'
p886
sg10
S'/Library/Python/2.7/site-packages/SQLAlchemy-0.8.0b1dev-py2.7-macosx-10.7-intel.egg/sqlalchemy/engine/ddl'
p887
sg12
g13
(g14
g15
NtRp888
(dp889
g18
I1
sg19
I0
sg20
I93
sg21
I0
sg22
I0
sg23
I72
sg24
I0
sbssg25
S'\xf0\x85h\xe2\x0f\xa5\x00N\xac\\\xe4\xe8\xde\xb2(\xe1'
p890
ssS'_Library_Python_2_7_site-packages_SQLAlchemy-0_8_0b1dev-py2_7-macosx-10_7-intel_egg_sqlalchemy_sql_visitors'
p891
(dp892
g6
(dp893
g8
S'_Library_Python_2_7_site-packages_SQLAlchemy-0_8_0b1dev-py2_7-macosx-10_7-intel_egg_sqlalchemy_sql_visitors.html'
p894
sg10
S'/Library/Python/2.7/site-packages/SQLAlchemy-0.8.0b1dev-py2.7-macosx-10.7-intel.egg/sqlalchemy/sql/visitors'
p895
sg12
g13
(g14
g15
NtRp896
(dp897
g18
I1
sg19
I0
sg20
I126
sg21
I0
sg22
I0
sg23
I69
sg24
I0
sbssg25
S'\xd9<;\xd7\xa8\xeb\xd6\x9a\x1d\x10\xd9R\xbc\xd4\x117'
p898
ssS'_Library_Python_2_7_site-packages_nose_failure'
p899
(dp900
g6
(dp901
g8
S'_Library_Python_2_7_site-packages_nose_failure.html'
p902
sg10
S'/Library/Python/2.7/site-packages/nose/failure'
p903
sg12
g13
(g14
g15
NtRp904
(dp905
g18
I1
sg19
I0
sg20
I22
sg21
I0
sg22
I0
sg23
I2
sg24
I0
sbssg25
S'\t\x1f\xc6\xb9\xa8\xd1\x91\x97\x93m\xd3z\xe9\xd3\t7'
p906
ssS'_Library_Python_2_7_site-packages_SQLAlchemy-0_8_0b2-py2_7-macosx-10_7-intel_egg_sqlalchemy_sql_compiler'
p907
(dp908
g29
(dp909
g31
S'_Library_Python_2_7_site-packages_SQLAlchemy-0_8_0b2-py2_7-macosx-10_7-intel_egg_sqlalchemy_sql_compiler.html'
p910
sg33
S'/Library/Python/2.7/site-packages/SQLAlchemy-0.8.0b2-py2.7-macosx-10.7-intel.egg/sqlalchemy/sql/compiler'
p911
sg35
g13
(g14
g15
NtRp912
(dp913
g18
I1
sg19
I0
sg20
I1147
sg21
I0
sg22
I0
sg23
I930
sg24
I0
sbssg38
S'\xa7\xa3\xb2\x93\xaf\x1aaW \x92)\x84\xa8\xa9\xb5.'
p914
ssS'_Library_Python_2_7_site-packages_nose_plugins_collect'
p915
(dp916
g6
(dp917
g8
S'_Library_Python_2_7_site-packages_nose_plugins_collect.html'
p918
sg10
S'/Library/Python/2.7/site-packages/nose/plugins/collect'
p919
sg12
g13
(g14
g15
NtRp920
(dp921
g18
I1
sg19
I0
sg20
I42
sg21
I0
sg22
I0
sg23
I24
sg24
I0
sbssg25
S'\xbae{\xd0\xe6\xfc]\x8a\x83\x86\xbd3\xd0f\x86\xd4'
p922
ssS'_Library_Python_2_7_site-packages_pg_catalog_pg_operator'
p923
(dp924
g6
(dp925
g8
S'_Library_Python_2_7_site-packages_pg_catalog_pg_operator.html'
p926
sg10
S'/Library/Python/2.7/site-packages/pg_catalog/pg_operator'
p927
sg12
g13
(g14
g15
NtRp928
(dp929
g18
I1
sg19
I0
sg20
I17
sg21
I0
sg22
I0
sg23
I0
sg24
I0
sbssg25
S'`\xb6|ZS.7y\x9a\tD\x00D\x8e\xb1\xc1'
p930
ssS'_Library_Python_2_7_site-packages_nose_plugins_manager'
p931
(dp932
g6
(dp933
g723
S'_Library_Python_2_7_site-packages_nose_plugins_manager.html'
p934
sg725
S'/Library/Python/2.7/site-packages/nose/plugins/manager'
p935
sg727
g13
(g14
g15
NtRp936
(dp937
g18
I1
sg19
I0
sg20
I265
sg21
I0
sg22
I0
sg23
I119
sg24
I0
sbssg25
S'a\xb88\x9d&\x9e{K2A\x82}\x8d\x03\xc8\xd0'
p938
ssS'_Library_Python_2_7_site-packages_SQLAlchemy-0_8_0b2-py2_7-macosx-10_7-intel_egg_sqlalchemy_engine_interfaces'
p939
(dp940
g29
(dp941
g31
S'_Library_Python_2_7_site-packages_SQLAlchemy-0_8_0b2-py2_7-macosx-10_7-intel_egg_sqlalchemy_engine_interfaces.html'
p942
sg33
S'/Library/Python/2.7/site-packages/SQLAlchemy-0.8.0b2-py2.7-macosx-10.7-intel.egg/sqlalchemy/engine/interfaces'
p943
sg35
g13
(g14
g15
NtRp944
(dp945
g18
I1
sg19
I0
sg20
I147
sg21
I0
sg22
I0
sg23
I73
sg24
I0
sbssg38
S'\xdd\xccu&p\x00\xf3\xa9K\x05\x01\xa05\x97\xaa0'
p946
ssS'_Library_Python_2_7_site-packages_pgit_postgresql_ddl_fdw'
p947
(dp948
g6
(dp949
g8
S'_Library_Python_2_7_site-packages_pgit_postgresql_ddl_fdw.html'
p950
sg10
S'/Library/Python/2.7/site-packages/pgit/postgresql/ddl/fdw'
p951
sg12
g13
(g14
g15
NtRp952
(dp953
g18
I1
sg19
I0
sg20
I9
sg21
I0
sg22
I0
sg23
I5
sg24
I0
sbssg25
S'\xa8>\x1f\xb3={I\x9f\x8d?{\x81]\r\xbd6'
p954
ssS'_Library_Python_2_7_site-packages_pgit_postgresql_cls_inherits'
p955
(dp956
g6
(dp957
g8
S'_Library_Python_2_7_site-packages_pgit_postgresql_cls_inherits.html'
p958
sg10
S'/Library/Python/2.7/site-packages/pgit/postgresql/cls/inherits'
p959
sg12
g13
(g14
g15
NtRp960
(dp961
g18
I1
sg19
I0
sg20
I5
sg21
I0
sg22
I0
sg23
I0
sg24
I0
sbssg25
S'C\xba\xa1g\x15V\x8a\xfe<M\xb3\xf7\\\xac\x10\xd0'
p962
ssS'_Library_Python_2_7_site-packages_nose_plugins_attrib'
p963
(dp964
g6
(dp965
g8
S'_Library_Python_2_7_site-packages_nose_plugins_attrib.html'
p966
sg10
S'/Library/Python/2.7/site-packages/nose/plugins/attrib'
p967
sg12
g13
(g14
g15
NtRp968
(dp969
g18
I1
sg19
I0
sg20
I103
sg21
I0
sg22
I0
sg23
I73
sg24
I0
sbssg25
S'\x10\x15\xa3\x8f\xf1\x07%3\xef\xff\x1f\xb3\xd6\xc7\xd0\xa1'
p970
ssS'_Library_Python_2_7_site-packages_nosestatus-0_0_1-py2_7_egg_nosestatus_plugin'
p971
(dp972
g6
(dp973
g8
S'_Library_Python_2_7_site-packages_nosestatus-0_0_1-py2_7_egg_nosestatus_plugin.html'
p974
sg10
S'/Library/Python/2.7/site-packages/nosestatus-0.0.1-py2.7.egg/nosestatus/plugin'
p975
sg12
g13
(g14
g15
NtRp976
(dp977
g18
I1
sg19
I0
sg20
I13
sg21
I0
sg22
I0
sg23
I0
sg24
I0
sbssg25
S'O\xfe>\x16\xe6\xbd\xc6-M-\xf9D\xee\xf4\x97B'
p978
ssS'_Library_Python_2_7_site-packages_SQLAlchemy-0_8_0b1dev-py2_7-macosx-10_7-intel_egg_sqlalchemy_event'
p979
(dp980
g6
(dp981
g8
S'_Library_Python_2_7_site-packages_SQLAlchemy-0_8_0b1dev-py2_7-macosx-10_7-intel_egg_sqlalchemy_event.html'
p982
sg10
S'/Library/Python/2.7/site-packages/SQLAlchemy-0.8.0b1dev-py2.7-macosx-10.7-intel.egg/sqlalchemy/event'
p983
sg12
g13
(g14
g15
NtRp984
(dp985
g18
I1
sg19
I0
sg20
I209
sg21
I0
sg22
I0
sg23
I76
sg24
I0
sbssg25
S'\xde\xe4%\xf2\xe5j\x13o\x06\x1ao\x8ec\x19\xa0\x1f'
p986
ssS'_Library_Python_2_7_site-packages_pgit_postgresql_server'
p987
(dp988
g6
(dp989
g8
S'_Library_Python_2_7_site-packages_pgit_postgresql_server.html'
p990
sg10
S'/Library/Python/2.7/site-packages/pgit/postgresql/server'
p991
sg12
g13
(g14
g15
NtRp992
(dp993
g18
I1
sg19
I0
sg20
I28
sg21
I0
sg22
I0
sg23
I15
sg24
I0
sbssg25
S'8B\x19\x17F\xa4K1:\x8b\xccTT\xd1\x03\x9b'
p994
ssS'_Library_Python_2_7_site-packages_SQLAlchemy-0_8_0b2-py2_7-macosx-10_7-intel_egg_sqlalchemy_dialects_postgresql_zxjdbc'
p995
(dp996
g29
(dp997
g31
S'_Library_Python_2_7_site-packages_SQLAlchemy-0_8_0b2-py2_7-macosx-10_7-intel_egg_sqlalchemy_dialects_postgresql_zxjdbc.html'
p998
sg33
S'/Library/Python/2.7/site-packages/SQLAlchemy-0.8.0b2-py2.7-macosx-10.7-intel.egg/sqlalchemy/dialects/postgresql/zxjdbc'
p999
sg35
g13
(g14
g15
NtRp1000
(dp1001
g18
I1
sg19
I0
sg20
I21
sg21
I0
sg22
I0
sg23
I8
sg24
I0
sbssg38
S'\xf2\xf4\xcc;\x91\xe8\x198X\x94a\x1b@G\xb6\x99'
p1002
ssS'_Library_Python_2_7_site-packages_SQLAlchemy-0_8_0b2-py2_7-macosx-10_7-intel_egg_sqlalchemy_orm_persistence'
p1003
(dp1004
g29
(dp1005
g31
S'_Library_Python_2_7_site-packages_SQLAlchemy-0_8_0b2-py2_7-macosx-10_7-intel_egg_sqlalchemy_orm_persistence.html'
p1006
sg33
S'/Library/Python/2.7/site-packages/SQLAlchemy-0.8.0b2-py2.7-macosx-10.7-intel.egg/sqlalchemy/orm/persistence'
p1007
sg35
g13
(g14
g15
NtRp1008
(dp1009
g18
I1
sg19
I0
sg20
I415
sg21
I0
sg22
I0
sg23
I358
sg24
I0
sbssg38
S'\xcd\xdd\xab!h4)\x98\x8b\x1bM\x01\xdf\x9d\x12\xa4'
p1010
ssS'_Library_Python_2_7_site-packages_SQLAlchemy-0_8_0b2-py2_7-macosx-10_7-intel_egg_sqlalchemy_orm_relationships'
p1011
(dp1012
g29
(dp1013
g31
S'_Library_Python_2_7_site-packages_SQLAlchemy-0_8_0b2-py2_7-macosx-10_7-intel_egg_sqlalchemy_orm_relationships.html'
p1014
sg33
S'/Library/Python/2.7/site-packages/SQLAlchemy-0.8.0b2-py2.7-macosx-10.7-intel.egg/sqlalchemy/orm/relationships'
p1015
sg35
g13
(g14
g15
NtRp1016
(dp1017
g18
I1
sg19
I0
sg20
I371
sg21
I0
sg22
I0
sg23
I326
sg24
I0
sbssg38
S'\x0e\x94%\x84\x96\x84m\x97\xbcf\xf5X^\x05z\xf1'
p1018
ssS'_Library_Python_2_7_site-packages_SQLAlchemy-0_8_0b2-py2_7-macosx-10_7-intel_egg_sqlalchemy_engine_strategies'
p1019
(dp1020
g29
(dp1021
g31
S'_Library_Python_2_7_site-packages_SQLAlchemy-0_8_0b2-py2_7-macosx-10_7-intel_egg_sqlalchemy_engine_strategies.html'
p1022
sg33
S'/Library/Python/2.7/site-packages/SQLAlchemy-0.8.0b2-py2.7-macosx-10.7-intel.egg/sqlalchemy/engine/strategies'
p1023
sg35
g13
(g14
g15
NtRp1024
(dp1025
g18
I1
sg19
I0
sg20
I124
sg21
I0
sg22
I0
sg23
I88
sg24
I0
sbssg38
S'\x10\xc4\x1a\xe7;\x9af\x19t\x1d=\xa4\x86\xdd\xb7\xaa'
p1026
ssS'_Library_Python_2_7_site-packages_SQLAlchemy-0_8_0b1dev-py2_7-macosx-10_7-intel_egg_sqlalchemy_sql_expression'
p1027
(dp1028
g6
(dp1029
g8
S'_Library_Python_2_7_site-packages_SQLAlchemy-0_8_0b1dev-py2_7-macosx-10_7-intel_egg_sqlalchemy_sql_expression.html'
p1030
sg10
S'/Library/Python/2.7/site-packages/SQLAlchemy-0.8.0b1dev-py2.7-macosx-10.7-intel.egg/sqlalchemy/sql/expression'
p1031
sg12
g13
(g14
g15
NtRp1032
(dp1033
g18
I1
sg19
I0
sg20
I1880
sg21
I0
sg22
I0
sg23
I1023
sg24
I0
sbssg25
S'\xff\xb2\xda\xca^\x13odA\xf1\xd4\xd77\x81\xe3\xc6'
p1034
ssS'_Library_Python_2_7_site-packages_SQLAlchemy-0_8_0b2-py2_7-macosx-10_7-intel_egg_sqlalchemy_ext_declarative_api'
p1035
(dp1036
g29
(dp1037
g31
S'_Library_Python_2_7_site-packages_SQLAlchemy-0_8_0b2-py2_7-macosx-10_7-intel_egg_sqlalchemy_ext_declarative_api.html'
p1038
sg33
S'/Library/Python/2.7/site-packages/SQLAlchemy-0.8.0b2-py2.7-macosx-10.7-intel.egg/sqlalchemy/ext/declarative/api'
p1039
sg35
g13
(g14
g15
NtRp1040
(dp1041
g18
I1
sg19
I0
sg20
I91
sg21
I0
sg22
I0
sg23
I47
sg24
I0
sbssg38
S'W\xfbH\t\xde\x84j\x16_\x15\xa0\x81\xea\xa4\\\xdd'
p1042
ssS'_Library_Python_2_7_site-packages_SQLAlchemy-0_8_0b2-py2_7-macosx-10_7-intel_egg_sqlalchemy_dialects_postgresql_pypostgresql'
p1043
(dp1044
g29
(dp1045
g31
S'_Library_Python_2_7_site-packages_SQLAlchemy-0_8_0b2-py2_7-macosx-10_7-intel_egg_sqlalchemy_dialects_postgresql_pypostgresql.html'
p1046
sg33
S'/Library/Python/2.7/site-packages/SQLAlchemy-0.8.0b2-py2.7-macosx-10.7-intel.egg/sqlalchemy/dialects/postgresql/pypostgresql'
p1047
sg35
g13
(g14
g15
NtRp1048
(dp1049
g18
I1
sg19
I0
sg20
I37
sg21
I0
sg22
I0
sg23
I13
sg24
I0
sbssg38
S'h\xf1\x85\t_\x08\x01i\xbd\xb1AH\x8e\x96\x9a0'
p1050
ssS'_Library_Python_2_7_site-packages_SQLAlchemy-0_8_0b1dev-py2_7-macosx-10_7-intel_egg_sqlalchemy_orm_sync'
p1051
(dp1052
g6
(dp1053
g8
S'_Library_Python_2_7_site-packages_SQLAlchemy-0_8_0b1dev-py2_7-macosx-10_7-intel_egg_sqlalchemy_orm_sync.html'
p1054
sg10
S'/Library/Python/2.7/site-packages/SQLAlchemy-0.8.0b1dev-py2.7-macosx-10.7-intel.egg/sqlalchemy/orm/sync'
p1055
sg12
g13
(g14
g15
NtRp1056
(dp1057
g18
I1
sg19
I0
sg20
I55
sg21
I0
sg22
I0
sg23
I47
sg24
I0
sbssg25
S'\x9f\n\x19\xbf6\x17\xac\xd2~\xdd\x9d]\xa4\xcf\xff\\'
p1058
ssS'_Library_Python_2_7_site-packages_SQLAlchemy-0_8_0b2-py2_7-macosx-10_7-intel_egg_sqlalchemy_util_queue'
p1059
(dp1060
g29
(dp1061
g31
S'_Library_Python_2_7_site-packages_SQLAlchemy-0_8_0b2-py2_7-macosx-10_7-intel_egg_sqlalchemy_util_queue.html'
p1062
sg33
S'/Library/Python/2.7/site-packages/SQLAlchemy-0.8.0b2-py2.7-macosx-10.7-intel.egg/sqlalchemy/util/queue'
p1063
sg35
g13
(g14
g15
NtRp1064
(dp1065
g18
I1
sg19
I0
sg20
I109
sg21
I0
sg22
I0
sg23
I79
sg24
I0
sbssg38
S'\x8a\xc4{o\xe2r\x92[\x91:\x16\xbf\xb4\xa9\x1a\x12'
p1066
ssS'_Library_Python_2_7_site-packages_SQLAlchemy-0_8_0b2-py2_7-macosx-10_7-intel_egg_sqlalchemy_dialects_postgresql_psycopg2'
p1067
(dp1068
g29
(dp1069
g31
S'_Library_Python_2_7_site-packages_SQLAlchemy-0_8_0b2-py2_7-macosx-10_7-intel_egg_sqlalchemy_dialects_postgresql_psycopg2.html'
p1070
sg33
S'/Library/Python/2.7/site-packages/SQLAlchemy-0.8.0b2-py2.7-macosx-10.7-intel.egg/sqlalchemy/dialects/postgresql/psycopg2'
p1071
sg35
g13
(g14
g15
NtRp1072
(dp1073
g18
I1
sg19
I0
sg20
I165
sg21
I0
sg22
I0
sg23
I110
sg24
I0
sbssg38
S']\xfdLH\xec\x0e\x06}=g\xe7p\x18sbx'
p1074
ssS'_Library_Python_2_7_site-packages_SQLAlchemy-0_8_0b2-py2_7-macosx-10_7-intel_egg_sqlalchemy_sql_functions'
p1075
(dp1076
g29
(dp1077
g31
S'_Library_Python_2_7_site-packages_SQLAlchemy-0_8_0b2-py2_7-macosx-10_7-intel_egg_sqlalchemy_sql_functions.html'
p1078
sg33
S'/Library/Python/2.7/site-packages/SQLAlchemy-0.8.0b2-py2.7-macosx-10.7-intel.egg/sqlalchemy/sql/functions'
p1079
sg35
g13
(g14
g15
NtRp1080
(dp1081
g18
I1
sg19
I0
sg20
I91
sg21
I0
sg22
I0
sg23
I21
sg24
I0
sbssg38
S'\x14-\xbb\xd0d\xb4\x16\xfd\xb1\x00\x97\xc3(`\xe0\xd3'
p1082
ssS'_Library_Python_2_7_site-packages_nose_plugins_doctests'
p1083
(dp1084
g6
(dp1085
g8
S'_Library_Python_2_7_site-packages_nose_plugins_doctests.html'
p1086
sg10
S'/Library/Python/2.7/site-packages/nose/plugins/doctests'
p1087
sg12
g13
(g14
g15
NtRp1088
(dp1089
g18
I1
sg19
I0
sg20
I217
sg21
I0
sg22
I0
sg23
I145
sg24
I0
sbssg25
S'\xf13\x11\xb8\xfa\xc9\xd8\x8dk\xb9\xaf\x1ej\x8fm\xa2'
p1090
ssS'_Library_Python_2_7_site-packages_pg_catalog_pg_ts_dict'
p1091
(dp1092
g6
(dp1093
g8
S'_Library_Python_2_7_site-packages_pg_catalog_pg_ts_dict.html'
p1094
sg10
S'/Library/Python/2.7/site-packages/pg_catalog/pg_ts_dict'
p1095
sg12
g13
(g14
g15
NtRp1096
(dp1097
g18
I1
sg19
I0
sg20
I8
sg21
I0
sg22
I0
sg23
I0
sg24
I0
sbssg25
S'\x05\x11\xb9\x84E\x02\xad\x92\x9d\xc9\xe9\xc7\xd3\x1b\xe7\x00'
p1098
ssS'_Library_Python_2_7_site-packages_pg_catalog_pg_index'
p1099
(dp1100
g6
(dp1101
g8
S'_Library_Python_2_7_site-packages_pg_catalog_pg_index.html'
p1102
sg10
S'/Library/Python/2.7/site-packages/pg_catalog/pg_index'
p1103
sg12
g13
(g14
g15
NtRp1104
(dp1105
g18
I1
sg19
I0
sg20
I14
sg21
I0
sg22
I0
sg23
I0
sg24
I0
sbssg25
S'\t{\xb5\x95\xbe\x9d\x8e\xec\x08\xb5\xe6\xcb\x86<\xb4\xf4'
p1106
ssS'_Library_Python_2_7_site-packages_SQLAlchemy-0_8_0b1dev-py2_7-macosx-10_7-intel_egg_sqlalchemy_cutils'
p1107
(dp1108
g6
(dp1109
g8
S'_Library_Python_2_7_site-packages_SQLAlchemy-0_8_0b1dev-py2_7-macosx-10_7-intel_egg_sqlalchemy_cutils.html'
p1110
sg10
S'/Library/Python/2.7/site-packages/SQLAlchemy-0.8.0b1dev-py2.7-macosx-10.7-intel.egg/sqlalchemy/cutils'
p1111
sg12
g13
(g14
g15
NtRp1112
(dp1113
g18
I1
sg19
I0
sg20
I6
sg21
I0
sg22
I0
sg23
I0
sg24
I0
sbssg25
S'X;\xaf\xeb\xde\xbd3\xa8\x11\x18\xb4\xd4\xc3\x84JX'
p1114
ssS'_Library_Python_2_7_site-packages_SQLAlchemy-0_8_0b1dev-py2_7-macosx-10_7-intel_egg_sqlalchemy_ext_declarative_base'
p1115
(dp1116
g6
(dp1117
g8
S'_Library_Python_2_7_site-packages_SQLAlchemy-0_8_0b1dev-py2_7-macosx-10_7-intel_egg_sqlalchemy_ext_declarative_base.html'
p1118
sg10
S'/Library/Python/2.7/site-packages/SQLAlchemy-0.8.0b1dev-py2.7-macosx-10.7-intel.egg/sqlalchemy/ext/declarative/base'
p1119
sg12
g13
(g14
g15
NtRp1120
(dp1121
g18
I1
sg19
I0
sg20
I224
sg21
I0
sg22
I0
sg23
I59
sg24
I0
sbssg25
S'E\x83\x05\xd8\x87\xb9\xac\x83\xdf\xb9\x85!oS.{'
p1122
ssS'_Library_Python_2_7_site-packages_pg_catalog_pg_constraint'
p1123
(dp1124
g6
(dp1125
g8
S'_Library_Python_2_7_site-packages_pg_catalog_pg_constraint.html'
p1126
sg10
S'/Library/Python/2.7/site-packages/pg_catalog/pg_constraint'
p1127
sg12
g13
(g14
g15
NtRp1128
(dp1129
g18
I1
sg19
I0
sg20
I35
sg21
I0
sg22
I0
sg23
I0
sg24
I0
sbssg25
S'f\x17s\xc9\xa2\t\x05X\xe3\xd8\x16\xf5\xc1\xc6\xc3\xa1'
p1130
ssS'_Library_Python_2_7_site-packages_pgit_postgresql_cls_column'
p1131
(dp1132
g6
(dp1133
g8
S'_Library_Python_2_7_site-packages_pgit_postgresql_cls_column.html'
p1134
sg10
S'/Library/Python/2.7/site-packages/pgit/postgresql/cls/column'
p1135
sg12
g13
(g14
g15
NtRp1136
(dp1137
g18
I1
sg19
I0
sg20
I32
sg21
I0
sg22
I0
sg23
I16
sg24
I0
sbssg25
S'\xccnp\x02\xd02)\xaa\x18\xb6z\xab\xf4(e\xda'
p1138
ssS'_Library_Python_2_7_site-packages_nose_plugins_failuredetail'
p1139
(dp1140
g6
(dp1141
g8
S'_Library_Python_2_7_site-packages_nose_plugins_failuredetail.html'
p1142
sg10
S'/Library/Python/2.7/site-packages/nose/plugins/failuredetail'
p1143
sg12
g13
(g14
g15
NtRp1144
(dp1145
g18
I1
sg19
I0
sg20
I16
sg21
I0
sg22
I0
sg23
I5
sg24
I0
sbssg25
S'n\xe3$\x97k\xc6h\xb3a\x06v/\x96\xa9\x18\xae'
p1146
ssS'_Library_Python_2_7_site-packages_nose_util'
p1147
(dp1148
g6
(dp1149
g8
S'_Library_Python_2_7_site-packages_nose_util.html'
p1150
sg10
S'/Library/Python/2.7/site-packages/nose/util'
p1151
sg12
g13
(g14
g15
NtRp1152
(dp1153
g18
I1
sg19
I0
sg20
I350
sg21
I0
sg22
I0
sg23
I224
sg24
I0
sbssg25
S'\x177^k\xf3{\xb9\xed!u\x9e\x9b\xccM\x99;'
p1154
ssS'_Library_Python_2_7_site-packages_SQLAlchemy-0_8_0b2-py2_7-macosx-10_7-intel_egg_sqlalchemy_connectors___init__'
p1155
(dp1156
g29
(dp1157
g31
S'_Library_Python_2_7_site-packages_SQLAlchemy-0_8_0b2-py2_7-macosx-10_7-intel_egg_sqlalchemy_connectors___init__.html'
p1158
sg33
S'/Library/Python/2.7/site-packages/SQLAlchemy-0.8.0b2-py2.7-macosx-10.7-intel.egg/sqlalchemy/connectors/__init__'
p1159
sg35
g13
(g14
g15
NtRp1160
(dp1161
g18
I1
sg19
I0
sg20
I2
sg21
I0
sg22
I0
sg23
I0
sg24
I0
sbssg38
S'iR\x89\xe5\x0c\x1e\xae5\xf4$\x85\x05R\x83\xc9\xf5'
p1162
ssS'_Library_Python_2_7_site-packages_nose_plugins_skip'
p1163
(dp1164
g6
(dp1165
g8
S'_Library_Python_2_7_site-packages_nose_plugins_skip.html'
p1166
sg10
S'/Library/Python/2.7/site-packages/nose/plugins/skip'
p1167
sg12
g13
(g14
g15
NtRp1168
(dp1169
g18
I1
sg19
I0
sg20
I19
sg21
I0
sg22
I0
sg23
I5
sg24
I0
sbssg25
S'\xb2\x01\xd5\x1c\xbfP\xc2I`\xb3~(\xb6\xce\xf1%'
p1170
ssS'_Library_Python_2_7_site-packages_SQLAlchemy-0_8_0b1dev-py2_7-macosx-10_7-intel_egg_sqlalchemy_orm_scoping'
p1171
(dp1172
g6
(dp1173
g8
S'_Library_Python_2_7_site-packages_SQLAlchemy-0_8_0b1dev-py2_7-macosx-10_7-intel_egg_sqlalchemy_orm_scoping.html'
p1174
sg10
S'/Library/Python/2.7/site-packages/SQLAlchemy-0.8.0b1dev-py2.7-macosx-10.7-intel.egg/sqlalchemy/orm/scoping'
p1175
sg12
g13
(g14
g15
NtRp1176
(dp1177
g18
I1
sg19
I0
sg20
I62
sg21
I0
sg22
I0
sg23
I35
sg24
I0
sbssg25
S'\xdc?hQ\x82?\x19\x0eZ\x93\xd0\xfc\xd5R\ts'
p1178
ssS'_Library_Python_2_7_site-packages_nose_tools_trivial'
p1179
(dp1180
g6
(dp1181
g8
S'_Library_Python_2_7_site-packages_nose_tools_trivial.html'
p1182
sg10
S'/Library/Python/2.7/site-packages/nose/tools/trivial'
p1183
sg12
g13
(g14
g15
NtRp1184
(dp1185
g18
I1
sg19
I0
sg20
I24
sg21
I0
sg22
I0
sg23
I5
sg24
I0
sbssg25
S'\xf7\xbc\x15.n\xdb\x85\xc5\xa5\x9b$F\xb0o\xd7\xe7'
p1186
ssS'_Library_Python_2_7_site-packages_SQLAlchemy-0_8_0b2-py2_7-macosx-10_7-intel_egg_sqlalchemy_orm_deprecated_interfaces'
p1187
(dp1188
g29
(dp1189
g31
S'_Library_Python_2_7_site-packages_SQLAlchemy-0_8_0b2-py2_7-macosx-10_7-intel_egg_sqlalchemy_orm_deprecated_interfaces.html'
p1190
sg33
S'/Library/Python/2.7/site-packages/SQLAlchemy-0.8.0b2-py2.7-macosx-10.7-intel.egg/sqlalchemy/orm/deprecated_interfaces'
p1191
sg35
g13
(g14
g15
NtRp1192
(dp1193
g18
I1
sg19
I0
sg20
I88
sg21
I0
sg22
I0
sg23
I50
sg24
I0
sbssg38
S'\x8a\\\x05p\rZ\xe5/\x8a\xcc\x84\xd5\x07\x85\x92\xf6'
p1194
ssS'_Library_Python_2_7_site-packages_SQLAlchemy-0_8_0b2-py2_7-macosx-10_7-intel_egg_sqlalchemy_sql_expression'
p1195
(dp1196
g29
(dp1197
g31
S'_Library_Python_2_7_site-packages_SQLAlchemy-0_8_0b2-py2_7-macosx-10_7-intel_egg_sqlalchemy_sql_expression.html'
p1198
sg33
S'/Library/Python/2.7/site-packages/SQLAlchemy-0.8.0b2-py2.7-macosx-10.7-intel.egg/sqlalchemy/sql/expression'
p1199
sg35
g13
(g14
g15
NtRp1200
(dp1201
g18
I1
sg19
I0
sg20
I1956
sg21
I0
sg22
I0
sg23
I1077
sg24
I0
sbssg38
S'\r\x1f`\xce\x8e\xac\xad\x12\x95\x17Bu\\\x9fe\x1e'
p1202
ssS'_Library_Python_2_7_site-packages_pgit_postgresql_ddl_language'
p1203
(dp1204
g6
(dp1205
g8
S'_Library_Python_2_7_site-packages_pgit_postgresql_ddl_language.html'
p1206
sg10
S'/Library/Python/2.7/site-packages/pgit/postgresql/ddl/language'
p1207
sg12
g13
(g14
g15
NtRp1208
(dp1209
g18
I1
sg19
I0
sg20
I6
sg21
I0
sg22
I0
sg23
I2
sg24
I0
sbssg25
S'_\xa2\xeen\xe0\xae\xcb2\xfc\x00m\xedY\x10T/'
p1210
ssS'_Library_Python_2_7_site-packages_nose_plugins___init__'
p1211
(dp1212
g6
(dp1213
g8
S'_Library_Python_2_7_site-packages_nose_plugins___init__.html'
p1214
sg10
S'/Library/Python/2.7/site-packages/nose/plugins/__init__'
p1215
sg12
g13
(g14
g15
NtRp1216
(dp1217
g18
I1
sg19
I0
sg20
I6
sg21
I0
sg22
I0
sg23
I2
sg24
I0
sbssg25
S'\x0bK!\xe8\xb5T}\xbe1\xf3\xaa\x86\xfa\xee\xc4\x9d'
p1218
ssS'package___name__'
p1219
(dp1220
g6
(dp1221
g8
S'package___name__.html'
p1222
sg10
S'package/__name__'
p1223
sg12
g13
(g14
g15
NtRp1224
(dp1225
g18
I1
sg19
I0
sg20
I2
sg21
I0
sg22
I0
sg23
I0
sg24
I0
sbssg25
S'\x81\xa1T:8\xc6\x11\xd5\xb0\x10\xd7\xc8\xbao@{'
p1226
ssS'_Library_Python_2_7_site-packages_SQLAlchemy-0_8_0b1dev-py2_7-macosx-10_7-intel_egg_sqlalchemy_engine_default'
p1227
(dp1228
g6
(dp1229
g8
S'_Library_Python_2_7_site-packages_SQLAlchemy-0_8_0b1dev-py2_7-macosx-10_7-intel_egg_sqlalchemy_engine_default.html'
p1230
sg10
S'/Library/Python/2.7/site-packages/SQLAlchemy-0.8.0b1dev-py2.7-macosx-10.7-intel.egg/sqlalchemy/engine/default'
p1231
sg12
g13
(g14
g15
NtRp1232
(dp1233
g18
I1
sg19
I0
sg20
I427
sg21
I0
sg22
I0
sg23
I318
sg24
I0
sbssg25
S'\xfcc\x88\xcc\xa6t\xbf\r\xbe\x96\x82\xd4[\x84\xc6\xa4'
p1234
ssS'_Library_Python_2_7_site-packages_pg_catalog__pg_types'
p1235
(dp1236
g6
(dp1237
g8
S'_Library_Python_2_7_site-packages_pg_catalog__pg_types.html'
p1238
sg10
S'/Library/Python/2.7/site-packages/pg_catalog/_pg_types'
p1239
sg12
g13
(g14
g15
NtRp1240
(dp1241
g18
I1
sg19
I0
sg20
I43
sg21
I0
sg22
I0
sg23
I15
sg24
I0
sbssg25
S'\x96\xd9\xd2x\x19~\xaf6\x94q\xedx\xe9\xda\x05\x99'
p1242
ssS'_Library_Python_2_7_site-packages_nose_plugins_errorclass'
p1243
(dp1244
g6
(dp1245
g8
S'_Library_Python_2_7_site-packages_nose_plugins_errorclass.html'
p1246
sg10
S'/Library/Python/2.7/site-packages/nose/plugins/errorclass'
p1247
sg12
g13
(g14
g15
NtRp1248
(dp1249
g18
I1
sg19
I0
sg20
I65
sg21
I0
sg22
I0
sg23
I20
sg24
I0
sbssg25
S'\xd4\x92G\xf9N\x04\xe8\x10\xdfO\xd7jI\x1c\x1d\xe8'
p1250
ssS'_Library_Python_2_7_site-packages_SQLAlchemy-0_8_0b1dev-py2_7-macosx-10_7-intel_egg_sqlalchemy_ext_declarative___init__'
p1251
(dp1252
g6
(dp1253
g8
S'_Library_Python_2_7_site-packages_SQLAlchemy-0_8_0b1dev-py2_7-macosx-10_7-intel_egg_sqlalchemy_ext_declarative___init__.html'
p1254
sg10
S'/Library/Python/2.7/site-packages/SQLAlchemy-0.8.0b1dev-py2.7-macosx-10.7-intel.egg/sqlalchemy/ext/declarative/__init__'
p1255
sg12
g13
(g14
g15
NtRp1256
(dp1257
g18
I1
sg19
I0
sg20
I3
sg21
I0
sg22
I0
sg23
I0
sg24
I0
sbssg25
S'G\x97\x13P\xf2n.?:X\x85\xa9v#\x1b\xb2'
p1258
ssS'_Library_Python_2_7_site-packages_SQLAlchemy-0_8_0b1dev-py2_7-macosx-10_7-intel_egg_sqlalchemy_dialects___init__'
p1259
(dp1260
g6
(dp1261
g8
S'_Library_Python_2_7_site-packages_SQLAlchemy-0_8_0b1dev-py2_7-macosx-10_7-intel_egg_sqlalchemy_dialects___init__.html'
p1262
sg10
S'/Library/Python/2.7/site-packages/SQLAlchemy-0.8.0b1dev-py2.7-macosx-10.7-intel.egg/sqlalchemy/dialects/__init__'
p1263
sg12
g13
(g14
g15
NtRp1264
(dp1265
g18
I1
sg19
I0
sg20
I17
sg21
I0
sg22
I0
sg23
I13
sg24
I0
sbssg25
S'Z\xf9uWJ\xd0\x07 \x16\xe5V7\x80\xe4x\x7f'
p1266
ssS'_Library_Python_2_7_site-packages_SQLAlchemy-0_8_0b2-py2_7-macosx-10_7-intel_egg_sqlalchemy_connectors_zxJDBC'
p1267
(dp1268
g29
(dp1269
g31
S'_Library_Python_2_7_site-packages_SQLAlchemy-0_8_0b2-py2_7-macosx-10_7-intel_egg_sqlalchemy_connectors_zxJDBC.html'
p1270
sg33
S'/Library/Python/2.7/site-packages/SQLAlchemy-0.8.0b2-py2.7-macosx-10.7-intel.egg/sqlalchemy/connectors/zxJDBC'
p1271
sg35
g13
(g14
g15
NtRp1272
(dp1273
g18
I1
sg19
I0
sg20
I30
sg21
I0
sg22
I0
sg23
I12
sg24
I0
sbssg38
S'^\xd3\x99\xf6\xcb\xe21N\xf3qMp\xd5\xa8\x19\xc5'
p1274
ssS'_Library_Python_2_7_site-packages_SQLAlchemy-0_8_0b1dev-py2_7-macosx-10_7-intel_egg_sqlalchemy_dialects_postgresql_zxjdbc'
p1275
(dp1276
g6
(dp1277
g8
S'_Library_Python_2_7_site-packages_SQLAlchemy-0_8_0b1dev-py2_7-macosx-10_7-intel_egg_sqlalchemy_dialects_postgresql_zxjdbc.html'
p1278
sg10
S'/Library/Python/2.7/site-packages/SQLAlchemy-0.8.0b1dev-py2.7-macosx-10.7-intel.egg/sqlalchemy/dialects/postgresql/zxjdbc'
p1279
sg12
g13
(g14
g15
NtRp1280
(dp1281
g18
I1
sg19
I0
sg20
I20
sg21
I0
sg22
I0
sg23
I7
sg24
I0
sbssg25
S'\xa0.\xbd*\xb1\xc772\x8aQ[\x03\xe6\xdbkC'
p1282
ssS'_Library_Python_2_7_site-packages_SQLAlchemy-0_8_0b2-py2_7-macosx-10_7-intel_egg_sqlalchemy_dialects_postgresql_hstore'
p1283
(dp1284
g29
(dp1285
g31
S'_Library_Python_2_7_site-packages_SQLAlchemy-0_8_0b2-py2_7-macosx-10_7-intel_egg_sqlalchemy_dialects_postgresql_hstore.html'
p1286
sg33
S'/Library/Python/2.7/site-packages/SQLAlchemy-0.8.0b2-py2.7-macosx-10.7-intel.egg/sqlalchemy/dialects/postgresql/hstore'
p1287
sg35
g13
(g14
g15
NtRp1288
(dp1289
g18
I1
sg19
I0
sg20
I118
sg21
I0
sg22
I0
sg23
I64
sg24
I0
sbssg38
S'.\xc1iU\xfay\x90\xf8B\xad\xb0\xfd\x11\x0c\x07\r'
p1290
ssS'_Library_Python_2_7_site-packages_SQLAlchemy-0_8_0b2-py2_7-macosx-10_7-intel_egg_sqlalchemy_event'
p1291
(dp1292
g29
(dp1293
g31
S'_Library_Python_2_7_site-packages_SQLAlchemy-0_8_0b2-py2_7-macosx-10_7-intel_egg_sqlalchemy_event.html'
p1294
sg33
S'/Library/Python/2.7/site-packages/SQLAlchemy-0.8.0b2-py2.7-macosx-10.7-intel.egg/sqlalchemy/event'
p1295
sg35
g13
(g14
g15
NtRp1296
(dp1297
g18
I1
sg19
I0
sg20
I251
sg21
I0
sg22
I0
sg23
I101
sg24
I0
sbssg38
S'\x9bo\xea\x9e5\xa5\x02\xce\xea\xa3s\xb3\xdcE\x8d\xc6'
p1298
ssS'_Library_Python_2_7_site-packages_pgit_postgresql_shell_createdb'
p1299
(dp1300
g6
(dp1301
g8
S'_Library_Python_2_7_site-packages_pgit_postgresql_shell_createdb.html'
p1302
sg10
S'/Library/Python/2.7/site-packages/pgit/postgresql/shell/createdb'
p1303
sg12
g13
(g14
g15
NtRp1304
(dp1305
g18
I1
sg19
I0
sg20
I13
sg21
I0
sg22
I0
sg23
I10
sg24
I0
sbssg25
S'x\x80|y\x91\xfb\xe3\x17\x99\x1dC\xda\xeb\x105\x11'
p1306
ssS'_Library_Python_2_7_site-packages_SQLAlchemy-0_8_0b1dev-py2_7-macosx-10_7-intel_egg_sqlalchemy_schema'
p1307
(dp1308
g6
(dp1309
g8
S'_Library_Python_2_7_site-packages_SQLAlchemy-0_8_0b1dev-py2_7-macosx-10_7-intel_egg_sqlalchemy_schema.html'
p1310
sg10
S'/Library/Python/2.7/site-packages/SQLAlchemy-0.8.0b1dev-py2.7-macosx-10.7-intel.egg/sqlalchemy/schema'
p1311
sg12
g13
(g14
g15
NtRp1312
(dp1313
g18
I1
sg19
I0
sg20
I1019
sg21
I0
sg22
I0
sg23
I521
sg24
I0
sbssg25
S'\xe5L\x97\x94y\xe2\x13\xef\xbb\xda5\xa1\xa1\x87\xe3\x18'
p1314
ssS'_Library_Python_2_7_site-packages_SQLAlchemy-0_8_0b2-py2_7-macosx-10_7-intel_egg_sqlalchemy_events'
p1315
(dp1316
g29
(dp1317
g31
S'_Library_Python_2_7_site-packages_SQLAlchemy-0_8_0b2-py2_7-macosx-10_7-intel_egg_sqlalchemy_events.html'
p1318
sg33
S'/Library/Python/2.7/site-packages/SQLAlchemy-0.8.0b2-py2.7-macosx-10.7-intel.egg/sqlalchemy/events'
p1319
sg35
g13
(g14
g15
NtRp1320
(dp1321
g18
I1
sg19
I0
sg20
I70
sg21
I0
sg22
I0
sg23
I26
sg24
I0
sbssg38
S'\x99l\xd4\x93\xb9\x897\x8e\xfe5".o\xa2\xdf\x1c'
p1322
ssS'_Library_Python_2_7_site-packages_pgit_postgresql_cls___init__'
p1323
(dp1324
g6
(dp1325
g8
S'_Library_Python_2_7_site-packages_pgit_postgresql_cls___init__.html'
p1326
sg10
S'/Library/Python/2.7/site-packages/pgit/postgresql/cls/__init__'
p1327
sg12
g13
(g14
g15
NtRp1328
(dp1329
g18
I1
sg19
I0
sg20
I14
sg21
I0
sg22
I0
sg23
I0
sg24
I0
sbssg25
S'h\xab\xc4@"/Kq\x06\xad\x9e\xdbz\xd6\xf1\x11'
p1330
ssS'_Library_Python_2_7_site-packages_SQLAlchemy-0_8_0b1dev-py2_7-macosx-10_7-intel_egg_sqlalchemy_dialects_postgresql___init__'
p1331
(dp1332
g6
(dp1333
g8
S'_Library_Python_2_7_site-packages_SQLAlchemy-0_8_0b1dev-py2_7-macosx-10_7-intel_egg_sqlalchemy_dialects_postgresql___init__.html'
p1334
sg10
S'/Library/Python/2.7/site-packages/SQLAlchemy-0.8.0b1dev-py2.7-macosx-10.7-intel.egg/sqlalchemy/dialects/postgresql/__init__'
p1335
sg12
g13
(g14
g15
NtRp1336
(dp1337
g18
I1
sg19
I0
sg20
I4
sg21
I0
sg22
I0
sg23
I0
sg24
I0
sbssg25
S'F\r\x0b\xd4\xa5O\x8ek\x80\x0fQ#C\xff\xd6\xc8'
p1338
ssS'_Library_Python_2_7_site-packages_SQLAlchemy-0_8_0b2-py2_7-macosx-10_7-intel_egg_sqlalchemy_orm___init__'
p1339
(dp1340
g29
(dp1341
g31
S'_Library_Python_2_7_site-packages_SQLAlchemy-0_8_0b2-py2_7-macosx-10_7-intel_egg_sqlalchemy_orm___init__.html'
p1342
sg33
S'/Library/Python/2.7/site-packages/SQLAlchemy-0.8.0b2-py2.7-macosx-10.7-intel.egg/sqlalchemy/orm/__init__'
p1343
sg35
g13
(g14
g15
NtRp1344
(dp1345
g18
I1
sg19
I0
sg20
I95
sg21
I0
sg22
I0
sg23
I47
sg24
I0
sbssg38
S'w\x157q&\xb6\xeb3\xb6\x8f\x00\x81\x8e>(}'
p1346
ssS'_Library_Python_2_7_site-packages_nose_loader'
p1347
(dp1348
g6
(dp1349
g8
S'_Library_Python_2_7_site-packages_nose_loader.html'
p1350
sg10
S'/Library/Python/2.7/site-packages/nose/loader'
p1351
sg12
g13
(g14
g15
NtRp1352
(dp1353
g18
I1
sg19
I0
sg20
I342
sg21
I0
sg22
I0
sg23
I199
sg24
I0
sbssg25
S'Lf\x1e\x1dJ\x86#\x02aD\xef\x04\x17\xe3\x1d\xb2'
p1354
ssS'_Library_Python_2_7_site-packages_nose_pyversion'
p1355
(dp1356
g6
(dp1357
g8
S'_Library_Python_2_7_site-packages_nose_pyversion.html'
p1358
sg10
S'/Library/Python/2.7/site-packages/nose/pyversion'
p1359
sg12
g13
(g14
g15
NtRp1360
(dp1361
g18
I1
sg19
I0
sg20
I78
sg21
I0
sg22
I0
sg23
I48
sg24
I0
sbssg25
S'\xe6\xd5l\xd4\xbelzK\x99\xac\x15\xe4\xf3>2\x05'
p1362
ssS'_Library_Python_2_7_site-packages_nose_suite'
p1363
(dp1364
g6
(dp1365
g8
S'_Library_Python_2_7_site-packages_nose_suite.html'
p1366
sg10
S'/Library/Python/2.7/site-packages/nose/suite'
p1367
sg12
g13
(g14
g15
NtRp1368
(dp1369
g18
I1
sg19
I0
sg20
I394
sg21
I0
sg22
I0
sg23
I143
sg24
I0
sbssg25
S'Pk\x1d\xde\x9f\x19{\x0e@\x02\x7fE\xb5\xd3\xa7z'
p1370
ssS'_Library_Python_2_7_site-packages_SQLAlchemy-0_8_0b1dev-py2_7-macosx-10_7-intel_egg_sqlalchemy_orm_evaluator'
p1371
(dp1372
g6
(dp1373
g8
S'_Library_Python_2_7_site-packages_SQLAlchemy-0_8_0b1dev-py2_7-macosx-10_7-intel_egg_sqlalchemy_orm_evaluator.html'
p1374
sg10
S'/Library/Python/2.7/site-packages/SQLAlchemy-0.8.0b1dev-py2.7-macosx-10.7-intel.egg/sqlalchemy/orm/evaluator'
p1375
sg12
g13
(g14
g15
NtRp1376
(dp1377
g18
I1
sg19
I0
sg20
I77
sg21
I0
sg22
I0
sg23
I62
sg24
I0
sbssg25
S'\x03\x84\xf7\xc0\xf0\xe1S\x87u\x0f\x18%f\x1a\xd9\xbd'
p1378
ssS'_Library_Python_2_7_site-packages_nose_plugins_builtin'
p1379
(dp1380
g6
(dp1381
g8
S'_Library_Python_2_7_site-packages_nose_plugins_builtin.html'
p1382
sg10
S'/Library/Python/2.7/site-packages/nose/plugins/builtin'
p1383
sg12
g13
(g14
g15
NtRp1384
(dp1385
g18
I1
sg19
I0
sg20
I12
sg21
I0
sg22
I0
sg23
I4
sg24
I0
sbssg25
S'6d\xf0G\xb8\x0f3\xf7\x19\xf5E\x18\x8e\r\x9b2'
p1386
ssS'_Library_Python_2_7_site-packages_pgit_postgresql_ddl___init__'
p1387
(dp1388
g6
(dp1389
g8
S'_Library_Python_2_7_site-packages_pgit_postgresql_ddl___init__.html'
p1390
sg10
S'/Library/Python/2.7/site-packages/pgit/postgresql/ddl/__init__'
p1391
sg12
g13
(g14
g15
NtRp1392
(dp1393
g18
I1
sg19
I0
sg20
I2
sg21
I0
sg22
I0
sg23
I0
sg24
I0
sbssg25
S'\xe8\x04\xc5\xe8l\x893\x90\xebR\x90\xba\x97\x906\xbd'
p1394
ssS'_Library_Python_2_7_site-packages_pg_catalog_base'
p1395
(dp1396
g6
(dp1397
g8
S'_Library_Python_2_7_site-packages_pg_catalog_base.html'
p1398
sg10
S'/Library/Python/2.7/site-packages/pg_catalog/base'
p1399
sg12
g13
(g14
g15
NtRp1400
(dp1401
g18
I1
sg19
I0
sg20
I39
sg21
I0
sg22
I0
sg23
I0
sg24
I0
sbssg25
S'/7@%\xcf4B\xfc\xa1P\x19\xe1\xf9\xcf\x93('
p1402
ssS'_Library_Python_2_7_site-packages_nose_tools___init__'
p1403
(dp1404
g6
(dp1405
g8
S'_Library_Python_2_7_site-packages_nose_tools___init__.html'
p1406
sg10
S'/Library/Python/2.7/site-packages/nose/tools/__init__'
p1407
sg12
g13
(g14
g15
NtRp1408
(dp1409
g18
I1
sg19
I0
sg20
I2
sg21
I0
sg22
I0
sg23
I0
sg24
I0
sbssg25
S't9FZ\xac\xfc\xf2\xb4\xa7&W\xff\xbd\xeb\xb2\xf9'
p1410
ssS'_Library_Python_2_7_site-packages_pgit_postgresql_ddl_constraint'
p1411
(dp1412
g6
(dp1413
g8
S'_Library_Python_2_7_site-packages_pgit_postgresql_ddl_constraint.html'
p1414
sg10
S'/Library/Python/2.7/site-packages/pgit/postgresql/ddl/constraint'
p1415
sg12
g13
(g14
g15
NtRp1416
(dp1417
g18
I1
sg19
I0
sg20
I13
sg21
I0
sg22
I0
sg23
I7
sg24
I0
sbssg25
S'\x04\xc6\xbe\x01_.|\n\x91\x91dK\xd1\xf2\x86G'
p1418
ssS'_Library_Python_2_7_site-packages_pgit_postgresql_cls_regprocedure___init__'
p1419
(dp1420
g6
(dp1421
g8
S'_Library_Python_2_7_site-packages_pgit_postgresql_cls_regprocedure___init__.html'
p1422
sg10
S'/Library/Python/2.7/site-packages/pgit/postgresql/cls/regprocedure/__init__'
p1423
sg12
g13
(g14
g15
NtRp1424
(dp1425
g18
I1
sg19
I0
sg20
I43
sg21
I0
sg22
I0
sg23
I22
sg24
I0
sbssg25
S'\x18\xf62\xfe\x9ajLFqX\\\x9d\xc1\xd3$\xf8'
p1426
ssS'_Library_Python_2_7_site-packages_SQLAlchemy-0_8_0b2-py2_7-macosx-10_7-intel_egg_sqlalchemy_orm_strategies'
p1427
(dp1428
g29
(dp1429
g31
S'_Library_Python_2_7_site-packages_SQLAlchemy-0_8_0b2-py2_7-macosx-10_7-intel_egg_sqlalchemy_orm_strategies.html'
p1430
sg33
S'/Library/Python/2.7/site-packages/SQLAlchemy-0.8.0b2-py2.7-macosx-10.7-intel.egg/sqlalchemy/orm/strategies'
p1431
sg35
g13
(g14
g15
NtRp1432
(dp1433
g18
I1
sg19
I0
sg20
I634
sg21
I0
sg22
I0
sg23
I516
sg24
I0
sbssg38
S'\x14\xd4\xd4\x9df\xff\xae\x90\x9a\xcfY\xd42\x0c\xc4A'
p1434
ssS'_Library_Python_2_7_site-packages_pgit_postgresql_cls_opr'
p1435
(dp1436
g6
(dp1437
g8
S'_Library_Python_2_7_site-packages_pgit_postgresql_cls_opr.html'
p1438
sg10
S'/Library/Python/2.7/site-packages/pgit/postgresql/cls/opr'
p1439
sg12
g13
(g14
g15
NtRp1440
(dp1441
g18
I1
sg19
I0
sg20
I40
sg21
I0
sg22
I0
sg23
I27
sg24
I0
sbssg25
S'0\x11\xc8\xdd\xe7\xfa\xe8l\x8aU5\xb1,\x04\xf9o'
p1442
ssS'_Library_Python_2_7_site-packages_SQLAlchemy-0_8_0b1dev-py2_7-macosx-10_7-intel_egg_sqlalchemy_ext_declarative_clsregistry'
p1443
(dp1444
g6
(dp1445
g8
S'_Library_Python_2_7_site-packages_SQLAlchemy-0_8_0b1dev-py2_7-macosx-10_7-intel_egg_sqlalchemy_ext_declarative_clsregistry.html'
p1446
sg10
S'/Library/Python/2.7/site-packages/SQLAlchemy-0.8.0b1dev-py2.7-macosx-10.7-intel.egg/sqlalchemy/ext/declarative/clsregistry'
p1447
sg12
g13
(g14
g15
NtRp1448
(dp1449
g18
I1
sg19
I0
sg20
I145
sg21
I0
sg22
I0
sg23
I86
sg24
I0
sbssg25
S'I\x91\x01\xac_\x0ej\xbflqC,\xb3\x83\xa2.'
p1450
ssS'_Library_Python_2_7_site-packages_SQLAlchemy-0_8_0b1dev-py2_7-macosx-10_7-intel_egg_sqlalchemy_orm_descriptor_props'
p1451
(dp1452
g6
(dp1453
g8
S'_Library_Python_2_7_site-packages_SQLAlchemy-0_8_0b1dev-py2_7-macosx-10_7-intel_egg_sqlalchemy_orm_descriptor_props.html'
p1454
sg10
S'/Library/Python/2.7/site-packages/SQLAlchemy-0.8.0b1dev-py2.7-macosx-10.7-intel.egg/sqlalchemy/orm/descriptor_props'
p1455
sg12
g13
(g14
g15
NtRp1456
(dp1457
g18
I1
sg19
I0
sg20
I220
sg21
I0
sg22
I0
sg23
I179
sg24
I0
sbssg25
S'\xe5PFU&\xe6\x10\xa7db\x925\xcf\x85$['
p1458
ssS'_Library_Python_2_7_site-packages_SQLAlchemy-0_8_0b1dev-py2_7-macosx-10_7-intel_egg_sqlalchemy_orm_state'
p1459
(dp1460
g6
(dp1461
g8
S'_Library_Python_2_7_site-packages_SQLAlchemy-0_8_0b1dev-py2_7-macosx-10_7-intel_egg_sqlalchemy_orm_state.html'
p1462
sg10
S'/Library/Python/2.7/site-packages/SQLAlchemy-0.8.0b1dev-py2.7-macosx-10.7-intel.egg/sqlalchemy/orm/state'
p1463
sg12
g13
(g14
g15
NtRp1464
(dp1465
g18
I1
sg19
I0
sg20
I248
sg21
I0
sg22
I0
sg23
I175
sg24
I0
sbssg25
S' \xed\x85\xa8f\x19du\xefx>\xad\xac>d\xd2'
p1466
ssS'_Library_Python_2_7_site-packages_nose_importer'
p1467
(dp1468
g6
(dp1469
g8
S'_Library_Python_2_7_site-packages_nose_importer.html'
p1470
sg10
S'/Library/Python/2.7/site-packages/nose/importer'
p1471
sg12
g13
(g14
g15
NtRp1472
(dp1473
g18
I1
sg19
I0
sg20
I92
sg21
I0
sg22
I0
sg23
I31
sg24
I0
sbssg25
S'\xbd\x99\xe9y\xbb\xf5\x978`%\x80RaO\xb3}'
p1474
ssS'_Library_Python_2_7_site-packages_SQLAlchemy-0_8_0b1dev-py2_7-macosx-10_7-intel_egg_sqlalchemy_processors'
p1475
(dp1476
g6
(dp1477
g8
S'_Library_Python_2_7_site-packages_SQLAlchemy-0_8_0b1dev-py2_7-macosx-10_7-intel_egg_sqlalchemy_processors.html'
p1478
sg10
S'/Library/Python/2.7/site-packages/SQLAlchemy-0.8.0b1dev-py2.7-macosx-10.7-intel.egg/sqlalchemy/processors'
p1479
sg12
g13
(g14
g15
NtRp1480
(dp1481
g18
I1
sg19
I0
sg20
I69
sg21
I0
sg22
I0
sg23
I58
sg24
I0
sbssg25
S'\x82+\xfdK~7\xb4\xf8\x0bQ\x96=<\xfe\x96\x19'
p1482
ssS'_Library_Python_2_7_site-packages_pg_catalog_pg_attrdef'
p1483
(dp1484
g6
(dp1485
g8
S'_Library_Python_2_7_site-packages_pg_catalog_pg_attrdef.html'
p1486
sg10
S'/Library/Python/2.7/site-packages/pg_catalog/pg_attrdef'
p1487
sg12
g13
(g14
g15
NtRp1488
(dp1489
g18
I1
sg19
I0
sg20
I7
sg21
I0
sg22
I0
sg23
I0
sg24
I0
sbssg25
S'\xaaW\xb8\xab\xc2\xba\x06\xb8\xbe1\xe5\x8b\xdb\x98\xb5\x88'
p1490
ssS'_Library_Python_2_7_site-packages_nose_plugins_capture'
p1491
(dp1492
g6
(dp1493
g8
S'_Library_Python_2_7_site-packages_nose_plugins_capture.html'
p1494
sg10
S'/Library/Python/2.7/site-packages/nose/plugins/capture'
p1495
sg12
g13
(g14
g15
NtRp1496
(dp1497
g18
I1
sg19
I0
sg20
I64
sg21
I0
sg22
I0
sg23
I16
sg24
I0
sbssg25
S'\xaa?"P\xd5\xbbg\xfe\xca\xfc\xad\x83}\x13\x1d\x96'
p1498
ssS'_Library_Python_2_7_site-packages_nose_proxy'
p1499
(dp1500
g6
(dp1501
g8
S'_Library_Python_2_7_site-packages_nose_proxy.html'
p1502
sg10
S'/Library/Python/2.7/site-packages/nose/proxy'
p1503
sg12
g13
(g14
g15
NtRp1504
(dp1505
g18
I1
sg19
I0
sg20
I111
sg21
I0
sg22
I0
sg23
I40
sg24
I0
sbssg25
S'\xdf\xab\xc4<\x06\xe5\xf4\x82\xe5\xcb\xf8\xda\x0f\x969\x1f'
p1506
ssS'_Library_Python_2_7_site-packages_pg_catalog_func_version'
p1507
(dp1508
g6
(dp1509
g8
S'_Library_Python_2_7_site-packages_pg_catalog_func_version.html'
p1510
sg10
S'/Library/Python/2.7/site-packages/pg_catalog/func/version'
p1511
sg12
g13
(g14
g15
NtRp1512
(dp1513
g18
I1
sg19
I0
sg20
I6
sg21
I0
sg22
I0
sg23
I3
sg24
I0
sbssg25
S'@"W\x9e\xeb\xb0\xa2\xd3)@\xdeD{6d\xbe'
p1514
ssS'_Library_Python_2_7_site-packages_SQLAlchemy-0_8_0b2-py2_7-macosx-10_7-intel_egg_sqlalchemy_orm_unitofwork'
p1515
(dp1516
g29
(dp1517
g31
S'_Library_Python_2_7_site-packages_SQLAlchemy-0_8_0b2-py2_7-macosx-10_7-intel_egg_sqlalchemy_orm_unitofwork.html'
p1518
sg33
S'/Library/Python/2.7/site-packages/SQLAlchemy-0.8.0b2-py2.7-macosx-10.7-intel.egg/sqlalchemy/orm/unitofwork'
p1519
sg35
g13
(g14
g15
NtRp1520
(dp1521
g18
I1
sg19
I0
sg20
I326
sg21
I0
sg22
I0
sg23
I263
sg24
I0
sbssg38
S'\xf4\x8a\xc7\xb9p\xeb0\xfd\xb9\xae \x9eI\xfd\x18\xb2'
p1522
ssS'_Library_Python_2_7_site-packages_nose_plugins_xunit'
p1523
(dp1524
g6
(dp1525
g8
S'_Library_Python_2_7_site-packages_nose_plugins_xunit.html'
p1526
sg10
S'/Library/Python/2.7/site-packages/nose/plugins/xunit'
p1527
sg12
g13
(g14
g15
NtRp1528
(dp1529
g18
I1
sg19
I0
sg20
I110
sg21
I0
sg22
I0
sg23
I72
sg24
I0
sbssg25
S"n!\x7f\x9d*,\x1cn\xfbQl0n\xa0'("
p1530
ssS'_Library_Python_2_7_site-packages_pg_catalog_pg_ts_template'
p1531
(dp1532
g6
(dp1533
g8
S'_Library_Python_2_7_site-packages_pg_catalog_pg_ts_template.html'
p1534
sg10
S'/Library/Python/2.7/site-packages/pg_catalog/pg_ts_template'
p1535
sg12
g13
(g14
g15
NtRp1536
(dp1537
g18
I1
sg19
I0
sg20
I8
sg21
I0
sg22
I0
sg23
I0
sg24
I0
sbssg25
S'\xb9\x9a\xc7V\xa2\xe0\r\xb7\x16^\xc6\xbc\n\\\x99\xee'
p1538
ssS'_Library_Python_2_7_site-packages_SQLAlchemy-0_8_0b2-py2_7-macosx-10_7-intel_egg_sqlalchemy_util_langhelpers'
p1539
(dp1540
g29
(dp1541
g31
S'_Library_Python_2_7_site-packages_SQLAlchemy-0_8_0b2-py2_7-macosx-10_7-intel_egg_sqlalchemy_util_langhelpers.html'
p1542
sg33
S'/Library/Python/2.7/site-packages/SQLAlchemy-0.8.0b2-py2.7-macosx-10.7-intel.egg/sqlalchemy/util/langhelpers'
p1543
sg35
g13
(g14
g15
NtRp1544
(dp1545
g18
I1
sg19
I0
sg20
I491
sg21
I0
sg22
I0
sg23
I260
sg24
I0
sbssg38
S'\xe7hH\x18\xceHR{\xb5+\x07bt\xa8np'
p1546
ssS'_Library_Python_2_7_site-packages_pgit_postgresql_cls_extension'
p1547
(dp1548
g6
(dp1549
g8
S'_Library_Python_2_7_site-packages_pgit_postgresql_cls_extension.html'
p1550
sg10
S'/Library/Python/2.7/site-packages/pgit/postgresql/cls/extension'
p1551
sg12
g13
(g14
g15
NtRp1552
(dp1553
g18
I1
sg19
I0
sg20
I12
sg21
I0
sg22
I0
sg23
I2
sg24
I0
sbssg25
S'\x8d\xd9v=\x8b\xb0\xe4\xaf4\xbc\xf8\xf0\x94A\x8c\xdb'
p1554
ssS'_Library_Python_2_7_site-packages_SQLAlchemy-0_8_0b2-py2_7-macosx-10_7-intel_egg_sqlalchemy_ext_hybrid'
p1555
(dp1556
g29
(dp1557
g31
S'_Library_Python_2_7_site-packages_SQLAlchemy-0_8_0b2-py2_7-macosx-10_7-intel_egg_sqlalchemy_ext_hybrid.html'
p1558
sg33
S'/Library/Python/2.7/site-packages/SQLAlchemy-0.8.0b2-py2.7-macosx-10.7-intel.egg/sqlalchemy/ext/hybrid'
p1559
sg35
g13
(g14
g15
NtRp1560
(dp1561
g18
I1
sg19
I0
sg20
I59
sg21
I0
sg22
I0
sg23
I31
sg24
I0
sbssg38
S'\xf2\x08\xea)\xd8\x9fR=Z\xd4k\xf26\xda\xb2\x9b'
p1562
ssS'_Library_Python_2_7_site-packages_nose_result'
p1563
(dp1564
g6
(dp1565
g8
S'_Library_Python_2_7_site-packages_nose_result.html'
p1566
sg10
S'/Library/Python/2.7/site-packages/nose/result'
p1567
sg12
g13
(g14
g15
NtRp1568
(dp1569
g18
I1
sg19
I0
sg20
I131
sg21
I0
sg22
I0
sg23
I51
sg24
I0
sbssg25
S'V(\x90\xe8\xb4\x9f\x01SU\xcc\x86c\r^\xfaj'
p1570
ssS'_Library_Python_2_7_site-packages_pg_catalog_pg_language'
p1571
(dp1572
g6
(dp1573
g8
S'_Library_Python_2_7_site-packages_pg_catalog_pg_language.html'
p1574
sg10
S'/Library/Python/2.7/site-packages/pg_catalog/pg_language'
p1575
sg12
g13
(g14
g15
NtRp1576
(dp1577
g18
I1
sg19
I0
sg20
I10
sg21
I0
sg22
I0
sg23
I0
sg24
I0
sbssg25
S"\xa2\x8e\xa2'\x1a\xe5\x8f{\x8e\x9fn\x93\xc3\xdd\xb2\x0c"
p1578
ssS'_Library_Python_2_7_site-packages_SQLAlchemy-0_8_0b2-py2_7-macosx-10_7-intel_egg_sqlalchemy_engine_result'
p1579
(dp1580
g29
(dp1581
g31
S'_Library_Python_2_7_site-packages_SQLAlchemy-0_8_0b2-py2_7-macosx-10_7-intel_egg_sqlalchemy_engine_result.html'
p1582
sg33
S'/Library/Python/2.7/site-packages/SQLAlchemy-0.8.0b2-py2.7-macosx-10.7-intel.egg/sqlalchemy/engine/result'
p1583
sg35
g13
(g14
g15
NtRp1584
(dp1585
g18
I1
sg19
I0
sg20
I440
sg21
I0
sg22
I0
sg23
I353
sg24
I0
sbssg38
S'\xeaD\xb0,8\x9e.9\xbf\x15\x9d\xe8\xb4\xd5pH'
p1586
ssS'_Users_nordmenss_git_python_file_py_file'
p1587
(dp1588
S'index'
p1589
(dp1590
g723
S'_Users_nordmenss_git_python_file_py_file.html'
p1591
sg725
S'/Users/nordmenss/git/python/file.py/file'
p1592
sg727
g13
(g14
g15
NtRp1593
(dp1594
g18
I1
sg19
I0
sg20
I96
sg21
I0
sg22
I0
sg23
I64
sg24
I0
sbssS'hash'
p1595
S'\xcc}~s\xf2\xfd\xdc\x7f\xa5S\xbb#t\xd5yu'
p1596
ssS'_Library_Python_2_7_site-packages_SQLAlchemy-0_8_0b2-py2_7-macosx-10_7-intel_egg_sqlalchemy_processors'
p1597
(dp1598
g29
(dp1599
g31
S'_Library_Python_2_7_site-packages_SQLAlchemy-0_8_0b2-py2_7-macosx-10_7-intel_egg_sqlalchemy_processors.html'
p1600
sg33
S'/Library/Python/2.7/site-packages/SQLAlchemy-0.8.0b2-py2.7-macosx-10.7-intel.egg/sqlalchemy/processors'
p1601
sg35
g13
(g14
g15
NtRp1602
(dp1603
g18
I1
sg19
I0
sg20
I69
sg21
I0
sg22
I0
sg23
I58
sg24
I0
sbssg38
S"`s>T'\xee_>\xf5\x1698\xe9\xfa\xbc@"
p1604
ssS'_Library_Python_2_7_site-packages_nosestatus-0_0_1-py2_7_egg_nosestatus___init__'
p1605
(dp1606
g6
(dp1607
g31
S'_Library_Python_2_7_site-packages_nosestatus-0_0_1-py2_7_egg_nosestatus___init__.html'
p1608
sg33
S'/Library/Python/2.7/site-packages/nosestatus-0.0.1-py2.7.egg/nosestatus/__init__'
p1609
sg35
g13
(g14
g15
NtRp1610
(dp1611
g18
I1
sg19
I0
sg20
I21
sg21
I0
sg22
I0
sg23
I4
sg24
I0
sbssg25
S'\x11\x95\tY\x1b\xfe,7p2\x11\x18\xca\x1b\xe8\xde'
p1612
ssS'_Library_Python_2_7_site-packages_SQLAlchemy-0_8_0b2-py2_7-macosx-10_7-intel_egg_sqlalchemy_sql_util'
p1613
(dp1614
g29
(dp1615
g31
S'_Library_Python_2_7_site-packages_SQLAlchemy-0_8_0b2-py2_7-macosx-10_7-intel_egg_sqlalchemy_sql_util.html'
p1616
sg33
S'/Library/Python/2.7/site-packages/SQLAlchemy-0.8.0b2-py2.7-macosx-10.7-intel.egg/sqlalchemy/sql/util'
p1617
sg35
g13
(g14
g15
NtRp1618
(dp1619
g18
I1
sg19
I0
sg20
I440
sg21
I0
sg22
I0
sg23
I308
sg24
I0
sbssg38
S'\x93\\E\xfc 5\x08\x9a,\x08\x13\nvdut'
p1620
ssS'_Library_Python_2_7_site-packages_pg_catalog_pg_tablespace'
p1621
(dp1622
g6
(dp1623
g8
S'_Library_Python_2_7_site-packages_pg_catalog_pg_tablespace.html'
p1624
sg10
S'/Library/Python/2.7/site-packages/pg_catalog/pg_tablespace'
p1625
sg12
g13
(g14
g15
NtRp1626
(dp1627
g18
I1
sg19
I0
sg20
I8
sg21
I0
sg22
I0
sg23
I0
sg24
I0
sbssg25
S'\xad\xb3\xee\x1f\xa6u\x9a\xa8\xc3\x12X_\xa3Kn\xf5'
p1628
ssS'_Library_Python_2_7_site-packages_SQLAlchemy-0_8_0b2-py2_7-macosx-10_7-intel_egg_sqlalchemy_util_topological'
p1629
(dp1630
g29
(dp1631
g31
S'_Library_Python_2_7_site-packages_SQLAlchemy-0_8_0b2-py2_7-macosx-10_7-intel_egg_sqlalchemy_util_topological.html'
p1632
sg33
S'/Library/Python/2.7/site-packages/SQLAlchemy-0.8.0b2-py2.7-macosx-10.7-intel.egg/sqlalchemy/util/topological'
p1633
sg35
g13
(g14
g15
NtRp1634
(dp1635
g18
I1
sg19
I0
sg20
I46
sg21
I0
sg22
I0
sg23
I38
sg24
I0
sbssg38
S'[\x1aO\xb7X\x12\xd9\xce\x80{\xb5[t\xb6\xe47'
p1636
ssS'_Library_Python_2_7_site-packages_SQLAlchemy-0_8_0b2-py2_7-macosx-10_7-intel_egg_sqlalchemy_dialects_postgresql_base'
p1637
(dp1638
g29
(dp1639
g31
S'_Library_Python_2_7_site-packages_SQLAlchemy-0_8_0b2-py2_7-macosx-10_7-intel_egg_sqlalchemy_dialects_postgresql_base.html'
p1640
sg33
S'/Library/Python/2.7/site-packages/SQLAlchemy-0.8.0b2-py2.7-macosx-10.7-intel.egg/sqlalchemy/dialects/postgresql/base'
p1641
sg35
g13
(g14
g15
NtRp1642
(dp1643
g18
I1
sg19
I0
sg20
I721
sg21
I0
sg22
I0
sg23
I521
sg24
I0
sbssg38
S"\xbd\xfe\x1f\xd5\x8c'\x04)\x10\xd7\xc4\xc2b*\x10\x07"
p1644
ssS'_Library_Python_2_7_site-packages_pg_catalog_pg_foreign_data_wrapper'
p1645
(dp1646
g6
(dp1647
g8
S'_Library_Python_2_7_site-packages_pg_catalog_pg_foreign_data_wrapper.html'
p1648
sg10
S'/Library/Python/2.7/site-packages/pg_catalog/pg_foreign_data_wrapper'
p1649
sg12
g13
(g14
g15
NtRp1650
(dp1651
g18
I1
sg19
I0
sg20
I7
sg21
I0
sg22
I0
sg23
I0
sg24
I0
sbssg25
S'\xa2(\x90\xd7\x98\xbf@\xe9N\x96\x03z3\x1c\xf4\xf8'
p1652
ssS'_Library_Python_2_7_site-packages_SQLAlchemy-0_8_0b2-py2_7-macosx-10_7-intel_egg_sqlalchemy_orm_events'
p1653
(dp1654
g29
(dp1655
g31
S'_Library_Python_2_7_site-packages_SQLAlchemy-0_8_0b2-py2_7-macosx-10_7-intel_egg_sqlalchemy_orm_events.html'
p1656
sg33
S'/Library/Python/2.7/site-packages/SQLAlchemy-0.8.0b2-py2.7-macosx-10.7-intel.egg/sqlalchemy/orm/events'
p1657
sg35
g13
(g14
g15
NtRp1658
(dp1659
g18
I1
sg19
I0
sg20
I235
sg21
I0
sg22
I0
sg23
I133
sg24
I0
sbssg38
S'\xf2\xb6\x11r\xd6\xb9\xf4\xac\xf0\xaf?Uj\xa4\xa1w'
p1660
ssS'_Library_Python_2_7_site-packages_SQLAlchemy-0_8_0b1dev-py2_7-macosx-10_7-intel_egg_sqlalchemy_dialects_postgresql_psycopg2'
p1661
(dp1662
g6
(dp1663
g8
S'_Library_Python_2_7_site-packages_SQLAlchemy-0_8_0b1dev-py2_7-macosx-10_7-intel_egg_sqlalchemy_dialects_postgresql_psycopg2.html'
p1664
sg10
S'/Library/Python/2.7/site-packages/SQLAlchemy-0.8.0b1dev-py2.7-macosx-10.7-intel.egg/sqlalchemy/dialects/postgresql/psycopg2'
p1665
sg12
g13
(g14
g15
NtRp1666
(dp1667
g18
I1
sg19
I0
sg20
I135
sg21
I0
sg22
I0
sg23
I88
sg24
I0
sbssg25
S'\xf3\xd7\xebl\x1e\xb2\x03\xf7\x82\x17[\xde\x17\x8cb\x1c'
p1668
ssS'_Library_Python_2_7_site-packages_pgit___init__'
p1669
(dp1670
g6
(dp1671
g8
S'_Library_Python_2_7_site-packages_pgit___init__.html'
p1672
sg10
S'/Library/Python/2.7/site-packages/pgit/__init__'
p1673
sg12
g13
(g14
g15
NtRp1674
(dp1675
g18
I1
sg19
I0
sg20
I0
sg21
I0
sg22
I0
sg23
I0
sg24
I0
sbssg25
S'\xb0\xc8pN\xaf>\xa0\xbaz\x144\xe0A9\xb8?'
p1676
ssS'_Library_Python_2_7_site-packages_SQLAlchemy-0_8_0b2-py2_7-macosx-10_7-intel_egg_sqlalchemy_inspection'
p1677
(dp1678
g29
(dp1679
g31
S'_Library_Python_2_7_site-packages_SQLAlchemy-0_8_0b2-py2_7-macosx-10_7-intel_egg_sqlalchemy_inspection.html'
p1680
sg33
S'/Library/Python/2.7/site-packages/SQLAlchemy-0.8.0b2-py2.7-macosx-10.7-intel.egg/sqlalchemy/inspection'
p1681
sg35
g13
(g14
g15
NtRp1682
(dp1683
g18
I1
sg19
I0
sg20
I27
sg21
I0
sg22
I0
sg23
I3
sg24
I0
sbssg38
S'\x1f\xb4)[s\xab1\xe8\x93\x15\x95\xed\xe0\xb4\x8d\x82'
p1684
ssS'_Library_Python_2_7_site-packages_SQLAlchemy-0_8_0b1dev-py2_7-macosx-10_7-intel_egg_sqlalchemy_connectors_zxJDBC'
p1685
(dp1686
g6
(dp1687
g8
S'_Library_Python_2_7_site-packages_SQLAlchemy-0_8_0b1dev-py2_7-macosx-10_7-intel_egg_sqlalchemy_connectors_zxJDBC.html'
p1688
sg10
S'/Library/Python/2.7/site-packages/SQLAlchemy-0.8.0b1dev-py2.7-macosx-10.7-intel.egg/sqlalchemy/connectors/zxJDBC'
p1689
sg12
g13
(g14
g15
NtRp1690
(dp1691
g18
I1
sg19
I0
sg20
I30
sg21
I0
sg22
I0
sg23
I12
sg24
I0
sbssg25
S'\x0b\xad3B\x05\x08q6\xec$\xd0\xd1\xa8\x88G\xad'
p1692
ssS'_Library_Python_2_7_site-packages_SQLAlchemy-0_8_0b2-py2_7-macosx-10_7-intel_egg_sqlalchemy_util_deprecations'
p1693
(dp1694
g29
(dp1695
g31
S'_Library_Python_2_7_site-packages_SQLAlchemy-0_8_0b2-py2_7-macosx-10_7-intel_egg_sqlalchemy_util_deprecations.html'
p1696
sg33
S'/Library/Python/2.7/site-packages/SQLAlchemy-0.8.0b2-py2.7-macosx-10.7-intel.egg/sqlalchemy/util/deprecations'
p1697
sg35
g13
(g14
g15
NtRp1698
(dp1699
g18
I1
sg19
I0
sg20
I55
sg21
I0
sg22
I0
sg23
I6
sg24
I0
sbssg38
S'X\xb9!8^\xd1\x13\xebb\xe8\xfc\xc0\x19\x15\x9ac'
p1700
ssS'_Library_Python_2_7_site-packages_SQLAlchemy-0_8_0b2-py2_7-macosx-10_7-intel_egg_sqlalchemy_types'
p1701
(dp1702
g29
(dp1703
g31
S'_Library_Python_2_7_site-packages_SQLAlchemy-0_8_0b2-py2_7-macosx-10_7-intel_egg_sqlalchemy_types.html'
p1704
sg33
S'/Library/Python/2.7/site-packages/SQLAlchemy-0.8.0b2-py2.7-macosx-10.7-intel.egg/sqlalchemy/types'
p1705
sg35
g13
(g14
g15
NtRp1706
(dp1707
g18
I1
sg19
I0
sg20
I668
sg21
I0
sg22
I0
sg23
I374
sg24
I0
sbssg38
S'\x93\\\x83\xc0\x1d\xce\xb0#\x17\x97\xc5\xcaf\xa7\xfc\x9d'
p1708
ssS'_Library_Python_2_7_site-packages_nose_plugins_debug'
p1709
(dp1710
g6
(dp1711
g8
S'_Library_Python_2_7_site-packages_nose_plugins_debug.html'
p1712
sg10
S'/Library/Python/2.7/site-packages/nose/plugins/debug'
p1713
sg12
g13
(g14
g15
NtRp1714
(dp1715
g18
I1
sg19
I0
sg20
I30
sg21
I0
sg22
I0
sg23
I13
sg24
I0
sbssg25
S'\x88$;q\x15\xc8<_\xf1AcDt\xd6G\xd9'
p1716
ssS'_Library_Python_2_7_site-packages_nose_plugins_prof'
p1717
(dp1718
g6
(dp1719
g8
S'_Library_Python_2_7_site-packages_nose_plugins_prof.html'
p1720
sg10
S'/Library/Python/2.7/site-packages/nose/plugins/prof'
p1721
sg12
g13
(g14
g15
NtRp1722
(dp1723
g18
I1
sg19
I0
sg20
I93
sg21
I0
sg22
I0
sg23
I56
sg24
I0
sbssg25
S'\xd6<\xeb\xe2\xd7(:\xcdT\xd8\x03\xde\x8f\xe0y\xae'
p1724
ssS'_Library_Python_2_7_site-packages_SQLAlchemy-0_8_0b1dev-py2_7-macosx-10_7-intel_egg_sqlalchemy_orm_mapper'
p1725
(dp1726
g6
(dp1727
g8
S'_Library_Python_2_7_site-packages_SQLAlchemy-0_8_0b1dev-py2_7-macosx-10_7-intel_egg_sqlalchemy_orm_mapper.html'
p1728
sg10
S'/Library/Python/2.7/site-packages/SQLAlchemy-0.8.0b1dev-py2.7-macosx-10.7-intel.egg/sqlalchemy/orm/mapper'
p1729
sg12
g13
(g14
g15
NtRp1730
(dp1731
g18
I1
sg19
I0
sg20
I853
sg21
I0
sg22
I0
sg23
I443
sg24
I0
sbssg25
S'?\xe8\x01\xaa\x1e&\xe5\xb6\xa2:y\xd0v\xf9h='
p1732
ssS'_Library_Python_2_7_site-packages_SQLAlchemy-0_8_0b2-py2_7-macosx-10_7-intel_egg_sqlalchemy_orm_util'
p1733
(dp1734
g29
(dp1735
g31
S'_Library_Python_2_7_site-packages_SQLAlchemy-0_8_0b2-py2_7-macosx-10_7-intel_egg_sqlalchemy_orm_util.html'
p1736
sg33
S'/Library/Python/2.7/site-packages/SQLAlchemy-0.8.0b2-py2.7-macosx-10.7-intel.egg/sqlalchemy/orm/util'
p1737
sg35
g13
(g14
g15
NtRp1738
(dp1739
g18
I1
sg19
I0
sg20
I460
sg21
I0
sg22
I0
sg23
I332
sg24
I0
sbssg38
S'\xda~zX\xce\xdb\xa2\x07c\xb0\x0f\xfc\t\x88l\x06'
p1740
ssS'package___all__'
p1741
(dp1742
g6
(dp1743
g8
S'package___all__.html'
p1744
sg10
S'package/__all__'
p1745
sg12
g13
(g14
g15
NtRp1746
(dp1747
g18
I1
sg19
I0
sg20
I0
sg21
I0
sg22
I0
sg23
I0
sg24
I0
sbssg25
S"\xaf\x85\xdb;Ks3\xcf\x10$\x1b\xb7\xf3'hg"
p1748
ssS'_Library_Python_2_7_site-packages_SQLAlchemy-0_8_0b1dev-py2_7-macosx-10_7-intel_egg_sqlalchemy_util___init__'
p1749
(dp1750
g6
(dp1751
g8
S'_Library_Python_2_7_site-packages_SQLAlchemy-0_8_0b1dev-py2_7-macosx-10_7-intel_egg_sqlalchemy_util___init__.html'
p1752
sg10
S'/Library/Python/2.7/site-packages/SQLAlchemy-0.8.0b1dev-py2.7-macosx-10.7-intel.egg/sqlalchemy/util/__init__'
p1753
sg12
g13
(g14
g15
NtRp1754
(dp1755
g18
I1
sg19
I0
sg20
I4
sg21
I0
sg22
I0
sg23
I0
sg24
I0
sbssg25
S'\xa7D\xb8\\\xd2\x8dO~VHV\xcb\xb4q\xb2\x03'
p1756
ssS'_Library_Python_2_7_site-packages_pgit_postgresql_ddl_column'
p1757
(dp1758
g6
(dp1759
g8
S'_Library_Python_2_7_site-packages_pgit_postgresql_ddl_column.html'
p1760
sg10
S'/Library/Python/2.7/site-packages/pgit/postgresql/ddl/column'
p1761
sg12
g13
(g14
g15
NtRp1762
(dp1763
g18
I1
sg19
I0
sg20
I28
sg21
I0
sg22
I0
sg23
I17
sg24
I0
sbssg25
S'<E\xba\xab\xd6\xc7w\x9fq\x8d\x7f\xe0{\xf0\x89\x80'
p1764
ssS'_Library_Python_2_7_site-packages_nose_plugins_allmodules'
p1765
(dp1766
g6
(dp1767
g8
S'_Library_Python_2_7_site-packages_nose_plugins_allmodules.html'
p1768
sg10
S'/Library/Python/2.7/site-packages/nose/plugins/allmodules'
p1769
sg12
g13
(g14
g15
NtRp1770
(dp1771
g18
I1
sg19
I0
sg20
I11
sg21
I0
sg22
I0
sg23
I3
sg24
I0
sbssg25
S'\xc2,\x87t\r\x1bQ!I\xd9^\x0fS\xc6\xb4!'
p1772
ssS'_Library_Python_2_7_site-packages_nose_exc'
p1773
(dp1774
g6
(dp1775
g8
S'_Library_Python_2_7_site-packages_nose_exc.html'
p1776
sg10
S'/Library/Python/2.7/site-packages/nose/exc'
p1777
sg12
g13
(g14
g15
NtRp1778
(dp1779
g18
I1
sg19
I0
sg20
I2
sg21
I0
sg22
I0
sg23
I0
sg24
I0
sbssg25
S'\x0c\x9b\\\x00\x91N\xdd\xa8\xb2,z\xe6\xee\x00K\xac'
p1780
ssS'_Library_Python_2_7_site-packages_SQLAlchemy-0_8_0b2-py2_7-macosx-10_7-intel_egg_sqlalchemy_orm_attributes'
p1781
(dp1782
g29
(dp1783
g31
S'_Library_Python_2_7_site-packages_SQLAlchemy-0_8_0b2-py2_7-macosx-10_7-intel_egg_sqlalchemy_orm_attributes.html'
p1784
sg33
S'/Library/Python/2.7/site-packages/SQLAlchemy-0.8.0b2-py2.7-macosx-10.7-intel.egg/sqlalchemy/orm/attributes'
p1785
sg35
g13
(g14
g15
NtRp1786
(dp1787
g18
I1
sg19
I0
sg20
I603
sg21
I0
sg22
I0
sg23
I414
sg24
I0
sbssg38
S'E\xf5\x06\xd1A\xde\xcf,\x9c\x0bn+\x0f\n\xaf\xea'
p1788
ssS'_Library_Python_2_7_site-packages_SQLAlchemy-0_8_0b2-py2_7-macosx-10_7-intel_egg_sqlalchemy_ext_declarative___init__'
p1789
(dp1790
g29
(dp1791
g31
S'_Library_Python_2_7_site-packages_SQLAlchemy-0_8_0b2-py2_7-macosx-10_7-intel_egg_sqlalchemy_ext_declarative___init__.html'
p1792
sg33
S'/Library/Python/2.7/site-packages/SQLAlchemy-0.8.0b2-py2.7-macosx-10.7-intel.egg/sqlalchemy/ext/declarative/__init__'
p1793
sg35
g13
(g14
g15
NtRp1794
(dp1795
g18
I1
sg19
I0
sg20
I3
sg21
I0
sg22
I0
sg23
I0
sg24
I0
sbssg38
S'd<\xcb\x1cCd\xe5\xc4\xf8\xdf\xbf\x08\x12\xf9\xf8\x13'
p1796
ssS'_Library_Python_2_7_site-packages_SQLAlchemy-0_8_0b1dev-py2_7-macosx-10_7-intel_egg_sqlalchemy_ext___init__'
p1797
(dp1798
g6
(dp1799
g8
S'_Library_Python_2_7_site-packages_SQLAlchemy-0_8_0b1dev-py2_7-macosx-10_7-intel_egg_sqlalchemy_ext___init__.html'
p1800
sg10
S'/Library/Python/2.7/site-packages/SQLAlchemy-0.8.0b1dev-py2.7-macosx-10.7-intel.egg/sqlalchemy/ext/__init__'
p1801
sg12
g13
(g14
g15
NtRp1802
(dp1803
g18
I1
sg19
I0
sg20
I0
sg21
I0
sg22
I0
sg23
I0
sg24
I0
sbssg25
S'\xfa8\x18\xeb\xe6q\xd9\xc9\x01\x93L<\x9fd[\xa4'
p1804
ssS'_Library_Python_2_7_site-packages_SQLAlchemy-0_8_0b2-py2_7-macosx-10_7-intel_egg_sqlalchemy_engine_util'
p1805
(dp1806
g29
(dp1807
g31
S'_Library_Python_2_7_site-packages_SQLAlchemy-0_8_0b2-py2_7-macosx-10_7-intel_egg_sqlalchemy_engine_util.html'
p1808
sg33
S'/Library/Python/2.7/site-packages/SQLAlchemy-0.8.0b2-py2.7-macosx-10.7-intel.egg/sqlalchemy/engine/util'
p1809
sg35
g13
(g14
g15
NtRp1810
(dp1811
g18
I1
sg19
I0
sg20
I38
sg21
I0
sg22
I0
sg23
I32
sg24
I0
sbssg38
S'q\xa9\xaa\xfc&$C\xdb:\x05\x97*l1\xc7\xc8'
p1812
ssS'_Library_Python_2_7_site-packages_lxml___init__'
p1813
(dp1814
g6
(dp1815
g8
S'_Library_Python_2_7_site-packages_lxml___init__.html'
p1816
sg10
S'/Library/Python/2.7/site-packages/lxml/__init__'
p1817
sg12
g13
(g14
g15
NtRp1818
(dp1819
g18
I1
sg19
I0
sg20
I10
sg21
I0
sg22
I0
sg23
I9
sg24
I0
sbssg25
S'\xb06\xc4\xf1\x1dT}[\xf3\xf0\xa7\xf8*ir\xf7'
p1820
ssS'_Library_Python_2_7_site-packages_SQLAlchemy-0_8_0b2-py2_7-macosx-10_7-intel_egg_sqlalchemy_engine___init__'
p1821
(dp1822
g29
(dp1823
g31
S'_Library_Python_2_7_site-packages_SQLAlchemy-0_8_0b2-py2_7-macosx-10_7-intel_egg_sqlalchemy_engine___init__.html'
p1824
sg33
S'/Library/Python/2.7/site-packages/SQLAlchemy-0.8.0b2-py2.7-macosx-10.7-intel.egg/sqlalchemy/engine/__init__'
p1825
sg35
g13
(g14
g15
NtRp1826
(dp1827
g18
I1
sg19
I0
sg20
I17
sg21
I0
sg22
I0
sg23
I7
sg24
I0
sbssg38
S'B\xf3\x97\x87\x8f\xc8\xcf\xf9\xd1\xb0\xea\xc4z\xd3\x05\xdd'
p1828
ssS'_Library_Python_2_7_site-packages_SQLAlchemy-0_8_0b1dev-py2_7-macosx-10_7-intel_egg_sqlalchemy_engine_interfaces'
p1829
(dp1830
g6
(dp1831
g8
S'_Library_Python_2_7_site-packages_SQLAlchemy-0_8_0b1dev-py2_7-macosx-10_7-intel_egg_sqlalchemy_engine_interfaces.html'
p1832
sg10
S'/Library/Python/2.7/site-packages/SQLAlchemy-0.8.0b1dev-py2.7-macosx-10.7-intel.egg/sqlalchemy/engine/interfaces'
p1833
sg12
g13
(g14
g15
NtRp1834
(dp1835
g18
I1
sg19
I0
sg20
I145
sg21
I0
sg22
I0
sg23
I72
sg24
I0
sbssg25
S'\xb3\xbd\xba9E]\x86J\xfd\xf6\xe8Z\xa0;u|'
p1836
ssS'_Library_Python_2_7_site-packages_SQLAlchemy-0_8_0b2-py2_7-macosx-10_7-intel_egg_sqlalchemy_dialects_postgresql_pg8000'
p1837
(dp1838
g29
(dp1839
g31
S'_Library_Python_2_7_site-packages_SQLAlchemy-0_8_0b2-py2_7-macosx-10_7-intel_egg_sqlalchemy_dialects_postgresql_pg8000.html'
p1840
sg33
S'/Library/Python/2.7/site-packages/SQLAlchemy-0.8.0b2-py2.7-macosx-10.7-intel.egg/sqlalchemy/dialects/postgresql/pg8000'
p1841
sg35
g13
(g14
g15
NtRp1842
(dp1843
g18
I1
sg19
I0
sg20
I57
sg21
I0
sg22
I0
sg23
I25
sg24
I0
sbssg38
S'\xa4\xffA\xebY\\\x0c\x02)v\xf1\xe1\x84\xd1w\xc0'
p1844
ssS'_Library_Python_2_7_site-packages_pgit_postgresql_ddl_base'
p1845
(dp1846
g6
(dp1847
g8
S'_Library_Python_2_7_site-packages_pgit_postgresql_ddl_base.html'
p1848
sg10
S'/Library/Python/2.7/site-packages/pgit/postgresql/ddl/base'
p1849
sg12
g13
(g14
g15
NtRp1850
(dp1851
g18
I1
sg19
I0
sg20
I25
sg21
I0
sg22
I0
sg23
I15
sg24
I0
sbssg25
S'#x(\xbcy\x94\x1b+c}\x1c8\x8a\xb6\x99\xe0'
p1852
ssS'package___file__'
p1853
(dp1854
g6
(dp1855
g8
S'package___file__.html'
p1856
sg10
S'package/__file__'
p1857
sg12
g13
(g14
g15
NtRp1858
(dp1859
g18
I1
sg19
I0
sg20
I2
sg21
I0
sg22
I0
sg23
I0
sg24
I0
sbssg25
S'{\x9cA\x9c\x90\x95\xed\xe8\xf0\x144\xf6\xc2\xe2\x1ck'
p1860
ssS'_Library_Python_2_7_site-packages_pg_catalog_pg_stat_activity'
p1861
(dp1862
g6
(dp1863
g8
S'_Library_Python_2_7_site-packages_pg_catalog_pg_stat_activity.html'
p1864
sg10
S'/Library/Python/2.7/site-packages/pg_catalog/pg_stat_activity'
p1865
sg12
g13
(g14
g15
NtRp1866
(dp1867
g18
I1
sg19
I0
sg20
I15
sg21
I0
sg22
I0
sg23
I0
sg24
I0
sbssg25
S'\x1cEl\xd3Nz\xc3\x1d\x84\xda\xc8\x8d\xb2\x9f\xfa0'
p1868
ssS'_Library_Python_2_7_site-packages_nose_plugins_cover'
p1869
(dp1870
g6
(dp1871
g8
S'_Library_Python_2_7_site-packages_nose_plugins_cover.html'
p1872
sg10
S'/Library/Python/2.7/site-packages/nose/plugins/cover'
p1873
sg12
g13
(g14
g15
NtRp1874
(dp1875
g18
I1
sg19
I0
sg20
I129
sg21
I0
sg22
I0
sg23
I76
sg24
I0
sbssg25
S'\x19F\x18\x90\xc6\xf6\xa6-\x92\x9fN\x92\xb3\xf7\x8b\x9f'
p1876
ssS'_Library_Python_2_7_site-packages_SQLAlchemy-0_8_0b1dev-py2_7-macosx-10_7-intel_egg_sqlalchemy_orm_events'
p1877
(dp1878
g6
(dp1879
g8
S'_Library_Python_2_7_site-packages_SQLAlchemy-0_8_0b1dev-py2_7-macosx-10_7-intel_egg_sqlalchemy_orm_events.html'
p1880
sg10
S'/Library/Python/2.7/site-packages/SQLAlchemy-0.8.0b1dev-py2.7-macosx-10.7-intel.egg/sqlalchemy/orm/events'
p1881
sg12
g13
(g14
g15
NtRp1882
(dp1883
g18
I1
sg19
I0
sg20
I158
sg21
I0
sg22
I0
sg23
I86
sg24
I0
sbssg25
S'\xa1\xd3\xbe\xb5\xe1W,\x81m]\xde\xc7\xf7\x12\xc6\x03'
p1884
ssS'_Library_Python_2_7_site-packages_SQLAlchemy-0_8_0b2-py2_7-macosx-10_7-intel_egg_sqlalchemy_ext_declarative_base'
p1885
(dp1886
g29
(dp1887
g31
S'_Library_Python_2_7_site-packages_SQLAlchemy-0_8_0b2-py2_7-macosx-10_7-intel_egg_sqlalchemy_ext_declarative_base.html'
p1888
sg33
S'/Library/Python/2.7/site-packages/SQLAlchemy-0.8.0b2-py2.7-macosx-10.7-intel.egg/sqlalchemy/ext/declarative/base'
p1889
sg35
g13
(g14
g15
NtRp1890
(dp1891
g18
I1
sg19
I0
sg20
I234
sg21
I0
sg22
I0
sg23
I64
sg24
I0
sbssg38
S'S\x84\xb2\x07\xc7g\x980e-n\xdbEix\xa1'
p1892
ssS'_Library_Python_2_7_site-packages_SQLAlchemy-0_8_0b1dev-py2_7-macosx-10_7-intel_egg_sqlalchemy_util_topological'
p1893
(dp1894
g6
(dp1895
g8
S'_Library_Python_2_7_site-packages_SQLAlchemy-0_8_0b1dev-py2_7-macosx-10_7-intel_egg_sqlalchemy_util_topological.html'
p1896
sg10
S'/Library/Python/2.7/site-packages/SQLAlchemy-0.8.0b1dev-py2.7-macosx-10.7-intel.egg/sqlalchemy/util/topological'
p1897
sg12
g13
(g14
g15
NtRp1898
(dp1899
g18
I1
sg19
I0
sg20
I46
sg21
I0
sg22
I0
sg23
I38
sg24
I0
sbssg25
S"fK\xb8\xcd\r\x99I\xe6\xe6\xdbY\x1b+\xd8\xff'"
p1900
ssS'_Library_Python_2_7_site-packages_SQLAlchemy-0_8_0b1dev-py2_7-macosx-10_7-intel_egg_sqlalchemy_types'
p1901
(dp1902
g6
(dp1903
g8
S'_Library_Python_2_7_site-packages_SQLAlchemy-0_8_0b1dev-py2_7-macosx-10_7-intel_egg_sqlalchemy_types.html'
p1904
sg10
S'/Library/Python/2.7/site-packages/SQLAlchemy-0.8.0b1dev-py2.7-macosx-10.7-intel.egg/sqlalchemy/types'
p1905
sg12
g13
(g14
g15
NtRp1906
(dp1907
g18
I1
sg19
I0
sg20
I645
sg21
I0
sg22
I0
sg23
I370
sg24
I0
sbssg25
S'\x89=\x01\x1e\xd7.)<#4\xd4\xcd\xf1\xe39\xef'
p1908
ssS'_Library_Python_2_7_site-packages_SQLAlchemy-0_8_0b1dev-py2_7-macosx-10_7-intel_egg_sqlalchemy_engine_result'
p1909
(dp1910
g6
(dp1911
g8
S'_Library_Python_2_7_site-packages_SQLAlchemy-0_8_0b1dev-py2_7-macosx-10_7-intel_egg_sqlalchemy_engine_result.html'
p1912
sg10
S'/Library/Python/2.7/site-packages/SQLAlchemy-0.8.0b1dev-py2.7-macosx-10.7-intel.egg/sqlalchemy/engine/result'
p1913
sg12
g13
(g14
g15
NtRp1914
(dp1915
g18
I1
sg19
I0
sg20
I440
sg21
I0
sg22
I0
sg23
I354
sg24
I0
sbssg25
S'\xaf\xf4\xa2t\xeeM\x90\xce\xbd\xe5\x99\x0e\nW)b'
p1916
ssS'_Library_Python_2_7_site-packages_pgit_postgresql_shell_exists'
p1917
(dp1918
g6
(dp1919
g8
S'_Library_Python_2_7_site-packages_pgit_postgresql_shell_exists.html'
p1920
sg10
S'/Library/Python/2.7/site-packages/pgit/postgresql/shell/exists'
p1921
sg12
g13
(g14
g15
NtRp1922
(dp1923
g18
I1
sg19
I0
sg20
I13
sg21
I0
sg22
I0
sg23
I10
sg24
I0
sbssg25
S'/p\xcd\xa5\xc1jm\x15\x10\xb5\x13|\x1dT\x0c\xad'
p1924
ssS'_Library_Python_2_7_site-packages_pgit_postgresql_shell___init__'
p1925
(dp1926
g6
(dp1927
g8
S'_Library_Python_2_7_site-packages_pgit_postgresql_shell___init__.html'
p1928
sg10
S'/Library/Python/2.7/site-packages/pgit/postgresql/shell/__init__'
p1929
sg12
g13
(g14
g15
NtRp1930
(dp1931
g18
I1
sg19
I0
sg20
I2
sg21
I0
sg22
I0
sg23
I0
sg24
I0
sbssg25
S'\xe8\x04\xc5\xe8l\x893\x90\xebR\x90\xba\x97\x906\xbd'
p1932
ssS'_Library_Python_2_7_site-packages_SQLAlchemy-0_8_0b1dev-py2_7-macosx-10_7-intel_egg_sqlalchemy_orm_deprecated_interfaces'
p1933
(dp1934
g6
(dp1935
g8
S'_Library_Python_2_7_site-packages_SQLAlchemy-0_8_0b1dev-py2_7-macosx-10_7-intel_egg_sqlalchemy_orm_deprecated_interfaces.html'
p1936
sg10
S'/Library/Python/2.7/site-packages/SQLAlchemy-0.8.0b1dev-py2.7-macosx-10.7-intel.egg/sqlalchemy/orm/deprecated_interfaces'
p1937
sg12
g13
(g14
g15
NtRp1938
(dp1939
g18
I1
sg19
I0
sg20
I88
sg21
I0
sg22
I0
sg23
I50
sg24
I0
sbssg25
S'\xe6\x9d\x1a\xc9\xe8\xc6\x19\xcb\xf2\xe1.\xa3\xf1\xfa\xd2i'
p1940
ssS'_Library_Python_2_7_site-packages_SQLAlchemy-0_8_0b2-py2_7-macosx-10_7-intel_egg_sqlalchemy_util_compat'
p1941
(dp1942
g29
(dp1943
g31
S'_Library_Python_2_7_site-packages_SQLAlchemy-0_8_0b2-py2_7-macosx-10_7-intel_egg_sqlalchemy_util_compat.html'
p1944
sg33
S'/Library/Python/2.7/site-packages/SQLAlchemy-0.8.0b2-py2.7-macosx-10.7-intel.egg/sqlalchemy/util/compat'
p1945
sg35
g13
(g14
g15
NtRp1946
(dp1947
g18
I1
sg19
I0
sg20
I194
sg21
I0
sg22
I0
sg23
I126
sg24
I0
sbssg38
S'd6\r\x87\xbap\xd7\x18\t\xb0\xd6\x8d\x0c6\xec\x1d'
p1948
ssS'test'
p1949
(dp1950
g6
(dp1951
g31
S'test.html'
p1952
sg33
S'test'
p1953
sg35
g13
(g14
g15
NtRp1954
(dp1955
g18
I1
sg19
I0
sg20
I5
sg21
I0
sg22
I0
sg23
I1
sg24
I0
sbssg25
S'1&\xecI\xbf\xa9%\x06G\x01\x19\xd7U\xef\xfa\x15'
p1956
ssS'_Library_Python_2_7_site-packages_pgit_shell'
p1957
(dp1958
g6
(dp1959
g8
S'_Library_Python_2_7_site-packages_pgit_shell.html'
p1960
sg10
S'/Library/Python/2.7/site-packages/pgit/shell'
p1961
sg12
g13
(g14
g15
NtRp1962
(dp1963
g18
I1
sg19
I0
sg20
I3
sg21
I0
sg22
I0
sg23
I1
sg24
I0
sbssg25
S' \xec\xf2\t\x9e"?\xe1~\xfe\x89\xd0\xb5ay\x9c'
p1964
ssS'_Library_Python_2_7_site-packages_nose_plugins_base'
p1965
(dp1966
g6
(dp1967
g8
S'_Library_Python_2_7_site-packages_nose_plugins_base.html'
p1968
sg10
S'/Library/Python/2.7/site-packages/nose/plugins/base'
p1969
sg12
g13
(g14
g15
NtRp1970
(dp1971
g18
I1
sg19
I0
sg20
I195
sg21
I0
sg22
I0
sg23
I59
sg24
I0
sbssg25
S'd\xaf\x9a\xe0\x87\xf4\x1c\xf5\x07\xd1\xc2\xdfMIB\xd1'
p1972
ssS'_Library_Python_2_7_site-packages_SQLAlchemy-0_8_0b2-py2_7-macosx-10_7-intel_egg_sqlalchemy_engine_ddl'
p1973
(dp1974
g29
(dp1975
g31
S'_Library_Python_2_7_site-packages_SQLAlchemy-0_8_0b2-py2_7-macosx-10_7-intel_egg_sqlalchemy_engine_ddl.html'
p1976
sg33
S'/Library/Python/2.7/site-packages/SQLAlchemy-0.8.0b2-py2.7-macosx-10.7-intel.egg/sqlalchemy/engine/ddl'
p1977
sg35
g13
(g14
g15
NtRp1978
(dp1979
g18
I1
sg19
I0
sg20
I93
sg21
I0
sg22
I0
sg23
I72
sg24
I0
sbssg38
S'\x8b\x81[>d\xbeJ\xcd#\x9e\xa6!\xf99\x84S'
p1980
ssS'_Library_Python_2_7_site-packages_SQLAlchemy-0_8_0b1dev-py2_7-macosx-10_7-intel_egg_sqlalchemy_orm_relationships'
p1981
(dp1982
g6
(dp1983
g8
S'_Library_Python_2_7_site-packages_SQLAlchemy-0_8_0b1dev-py2_7-macosx-10_7-intel_egg_sqlalchemy_orm_relationships.html'
p1984
sg10
S'/Library/Python/2.7/site-packages/SQLAlchemy-0.8.0b1dev-py2.7-macosx-10.7-intel.egg/sqlalchemy/orm/relationships'
p1985
sg12
g13
(g14
g15
NtRp1986
(dp1987
g18
I1
sg19
I0
sg20
I366
sg21
I0
sg22
I0
sg23
I322
sg24
I0
sbssg25
S')$\xf9\xdeu\x86\xa4\xca\xd4\xc1\xda\x94\xb4N\x95\x93'
p1988
ssS'_Library_Python_2_7_site-packages_pgit_postgresql_cls_index_params'
p1989
(dp1990
g6
(dp1991
g8
S'_Library_Python_2_7_site-packages_pgit_postgresql_cls_index_params.html'
p1992
sg10
S'/Library/Python/2.7/site-packages/pgit/postgresql/cls/index_params'
p1993
sg12
g13
(g14
g15
NtRp1994
(dp1995
g18
I1
sg19
I0
sg20
I5
sg21
I0
sg22
I0
sg23
I0
sg24
I0
sbssg25
S'\x1a\xa0\xc4\xea\x99\xdbM-\xe4\x979X#\xaa\xf8\xf5'
p1996
ssS'_Library_Python_2_7_site-packages_pg_catalog_pg_opclass'
p1997
(dp1998
g6
(dp1999
g8
S'_Library_Python_2_7_site-packages_pg_catalog_pg_opclass.html'
p2000
sg10
S'/Library/Python/2.7/site-packages/pg_catalog/pg_opclass'
p2001
sg12
g13
(g14
g15
NtRp2002
(dp2003
g18
I1
sg19
I0
sg20
I11
sg21
I0
sg22
I0
sg23
I0
sg24
I0
sbssg25
S'\xa1\xbcD_\xee\xc3b\x1d\x0c\x06\xebFA\xefp\xf7'
p2004
ssS'_Library_Python_2_7_site-packages_SQLAlchemy-0_8_0b1dev-py2_7-macosx-10_7-intel_egg_sqlalchemy_dialects_postgresql_base'
p2005
(dp2006
g6
(dp2007
g8
S'_Library_Python_2_7_site-packages_SQLAlchemy-0_8_0b1dev-py2_7-macosx-10_7-intel_egg_sqlalchemy_dialects_postgresql_base.html'
p2008
sg10
S'/Library/Python/2.7/site-packages/SQLAlchemy-0.8.0b1dev-py2.7-macosx-10.7-intel.egg/sqlalchemy/dialects/postgresql/base'
p2009
sg12
g13
(g14
g15
NtRp2010
(dp2011
g18
I1
sg19
I0
sg20
I669
sg21
I0
sg22
I0
sg23
I491
sg24
I0
sbssg25
S'\xd0{\x9d\x14\xcf\x85\xea%h\xa6\x80M\xf3G^:'
p2012
ssS'_Library_Python_2_7_site-packages_SQLAlchemy-0_8_0b2-py2_7-macosx-10_7-intel_egg_sqlalchemy_orm_dependency'
p2013
(dp2014
g29
(dp2015
g31
S'_Library_Python_2_7_site-packages_SQLAlchemy-0_8_0b2-py2_7-macosx-10_7-intel_egg_sqlalchemy_orm_dependency.html'
p2016
sg33
S'/Library/Python/2.7/site-packages/SQLAlchemy-0.8.0b2-py2.7-macosx-10.7-intel.egg/sqlalchemy/orm/dependency'
p2017
sg35
g13
(g14
g15
NtRp2018
(dp2019
g18
I1
sg19
I0
sg20
I477
sg21
I0
sg22
I0
sg23
I414
sg24
I0
sbssg38
S'\x15\xec\x17\xb1\x0e\xd9\x1a\xd6\x97Oo\xaff\xb2\xf7\xd7'
p2020
ssS'_Library_Python_2_7_site-packages_SQLAlchemy-0_8_0b2-py2_7-macosx-10_7-intel_egg_sqlalchemy_ext_declarative_clsregistry'
p2021
(dp2022
g29
(dp2023
g31
S'_Library_Python_2_7_site-packages_SQLAlchemy-0_8_0b2-py2_7-macosx-10_7-intel_egg_sqlalchemy_ext_declarative_clsregistry.html'
p2024
sg33
S'/Library/Python/2.7/site-packages/SQLAlchemy-0.8.0b2-py2.7-macosx-10.7-intel.egg/sqlalchemy/ext/declarative/clsregistry'
p2025
sg35
g13
(g14
g15
NtRp2026
(dp2027
g18
I1
sg19
I0
sg20
I162
sg21
I0
sg22
I0
sg23
I93
sg24
I0
sbssg38
S'\xed5?\x8e\x05\xda\x0bJ=\xe2\xf0f\x18\x9f\xd5\xed'
p2028
ssS'_Library_Python_2_7_site-packages_SQLAlchemy-0_8_0b1dev-py2_7-macosx-10_7-intel_egg_sqlalchemy___init__'
p2029
(dp2030
g6
(dp2031
g8
S'_Library_Python_2_7_site-packages_SQLAlchemy-0_8_0b1dev-py2_7-macosx-10_7-intel_egg_sqlalchemy___init__.html'
p2032
sg10
S'/Library/Python/2.7/site-packages/SQLAlchemy-0.8.0b1dev-py2.7-macosx-10.7-intel.egg/sqlalchemy/__init__'
p2033
sg12
g13
(g14
g15
NtRp2034
(dp2035
g18
I1
sg19
I0
sg20
I12
sg21
I0
sg22
I0
sg23
I0
sg24
I0
sbssg25
S'\xe36\xe9c\xac\xb3+\xae\xe1\xc8\xbd\x0c\n<\x13\xf5'
p2036
ssS'_Library_Python_2_7_site-packages_SQLAlchemy-0_8_0b2-py2_7-macosx-10_7-intel_egg_sqlalchemy_ext___init__'
p2037
(dp2038
g29
(dp2039
g31
S'_Library_Python_2_7_site-packages_SQLAlchemy-0_8_0b2-py2_7-macosx-10_7-intel_egg_sqlalchemy_ext___init__.html'
p2040
sg33
S'/Library/Python/2.7/site-packages/SQLAlchemy-0.8.0b2-py2.7-macosx-10.7-intel.egg/sqlalchemy/ext/__init__'
p2041
sg35
g13
(g14
g15
NtRp2042
(dp2043
g18
I1
sg19
I0
sg20
I0
sg21
I0
sg22
I0
sg23
I0
sg24
I0
sbssg38
S'Qc7\xf9l_O\x9b\xb5pC~{\x1f \xec'
p2044
ssS'_Library_Python_2_7_site-packages_SQLAlchemy-0_8_0b1dev-py2_7-macosx-10_7-intel_egg_sqlalchemy_sql_util'
p2045
(dp2046
g6
(dp2047
g8
S'_Library_Python_2_7_site-packages_SQLAlchemy-0_8_0b1dev-py2_7-macosx-10_7-intel_egg_sqlalchemy_sql_util.html'
p2048
sg10
S'/Library/Python/2.7/site-packages/SQLAlchemy-0.8.0b1dev-py2.7-macosx-10.7-intel.egg/sqlalchemy/sql/util'
p2049
sg12
g13
(g14
g15
NtRp2050
(dp2051
g18
I1
sg19
I0
sg20
I424
sg21
I0
sg22
I0
sg23
I303
sg24
I0
sbssg25
S'\x02\x1d\x88t.\xea\x03}\xb9\xa7\x0c\x96\xe2\xa3\xd6\xc4'
p2052
ssS'_Library_Python_2_7_site-packages_SQLAlchemy-0_8_0b2-py2_7-macosx-10_7-intel_egg_sqlalchemy_cresultproxy'
p2053
(dp2054
g29
(dp2055
g31
S'_Library_Python_2_7_site-packages_SQLAlchemy-0_8_0b2-py2_7-macosx-10_7-intel_egg_sqlalchemy_cresultproxy.html'
p2056
sg33
S'/Library/Python/2.7/site-packages/SQLAlchemy-0.8.0b2-py2.7-macosx-10.7-intel.egg/sqlalchemy/cresultproxy'
p2057
sg35
g13
(g14
g15
NtRp2058
(dp2059
g18
I1
sg19
I0
sg20
I6
sg21
I0
sg22
I0
sg23
I0
sg24
I0
sbssg38
S'1\x8f\xc1\xad.\xb6\xd3c\x02m6p\xf4\xdd\xc4_'
p2060
ssS'_Users_nordmenss_git_python_say_py_say'
p2061
(dp2062
g29
(dp2063
g723
S'_Users_nordmenss_git_python_say_py_say.html'
p2064
sg725
S'/Users/nordmenss/git/python/say.py/say'
p2065
sg727
g13
(g14
g15
NtRp2066
(dp2067
g18
I1
sg19
I0
sg20
I30
sg21
I0
sg22
I0
sg23
I24
sg24
I0
sbssg38
S'\xe3\x89\x93\xa2\xcdJ\xcd\xf4\xb9di\xd9\x13c\x93['
p2068
ssS'package___init__'
p2069
(dp2070
g6
(dp2071
g8
S'package___init__.html'
p2072
sg10
S'package/__init__'
p2073
sg12
g13
(g14
g15
NtRp2074
(dp2075
g18
I1
sg19
I0
sg20
I7
sg21
I0
sg22
I0
sg23
I0
sg24
I0
sbssg25
S'\xde\x93\x84\xaf\x9d\x13">\x02\xbev\nR\xce\x13O'
p2076
ssS'_Library_Python_2_7_site-packages_pg_catalog_pg_namespace'
p2077
(dp2078
g6
(dp2079
g8
S'_Library_Python_2_7_site-packages_pg_catalog_pg_namespace.html'
p2080
sg10
S'/Library/Python/2.7/site-packages/pg_catalog/pg_namespace'
p2081
sg12
g13
(g14
g15
NtRp2082
(dp2083
g18
I1
sg19
I0
sg20
I5
sg21
I0
sg22
I0
sg23
I0
sg24
I0
sbssg25
S'eO\xdbxV\x08ev>\xfc\x9e\x97Y\x88\xcaF'
p2084
ssS'_Library_Python_2_7_site-packages_SQLAlchemy-0_8_0b2-py2_7-macosx-10_7-intel_egg_sqlalchemy_engine_default'
p2085
(dp2086
g29
(dp2087
g31
S'_Library_Python_2_7_site-packages_SQLAlchemy-0_8_0b2-py2_7-macosx-10_7-intel_egg_sqlalchemy_engine_default.html'
p2088
sg33
S'/Library/Python/2.7/site-packages/SQLAlchemy-0.8.0b2-py2.7-macosx-10.7-intel.egg/sqlalchemy/engine/default'
p2089
sg35
g13
(g14
g15
NtRp2090
(dp2091
g18
I1
sg19
I0
sg20
I430
sg21
I0
sg22
I0
sg23
I318
sg24
I0
sbssg38
S"\x08\x18\xa9\xd8\x1f\xb9\xc5}'C\x80\xf2?o\xa1\x9f"
p2092
ssS'_Library_Python_2_7_site-packages_pgit_postgresql_cls_fdw'
p2093
(dp2094
g6
(dp2095
g8
S'_Library_Python_2_7_site-packages_pgit_postgresql_cls_fdw.html'
p2096
sg10
S'/Library/Python/2.7/site-packages/pgit/postgresql/cls/fdw'
p2097
sg12
g13
(g14
g15
NtRp2098
(dp2099
g18
I1
sg19
I0
sg20
I10
sg21
I0
sg22
I0
sg23
I2
sg24
I0
sbssg25
S'\x1d0\xa0\xado(\x05\xf3]\x94\x08\n\x8em\xed\xb0'
p2100
ssS'_Library_Python_2_7_site-packages_nose_selector'
p2101
(dp2102
g6
(dp2103
g8
S'_Library_Python_2_7_site-packages_nose_selector.html'
p2104
sg10
S'/Library/Python/2.7/site-packages/nose/selector'
p2105
sg12
g13
(g14
g15
NtRp2106
(dp2107
g18
I1
sg19
I0
sg20
I134
sg21
I0
sg22
I0
sg23
I56
sg24
I0
sbssg25
S'\x03`/%-\xd1\xc7\xb4k\x17\t%\xad\xabt\xda'
p2108
ssS'_Library_Python_2_7_site-packages_pg_catalog_pg_opfamily'
p2109
(dp2110
g6
(dp2111
g8
S'_Library_Python_2_7_site-packages_pg_catalog_pg_opfamily.html'
p2112
sg10
S'/Library/Python/2.7/site-packages/pg_catalog/pg_opfamily'
p2113
sg12
g13
(g14
g15
NtRp2114
(dp2115
g18
I1
sg19
I0
sg20
I7
sg21
I0
sg22
I0
sg23
I0
sg24
I0
sbssg25
S"z\xd7\x82'\x83\x98\x85\xfc\x9faf>]y$\x7f"
p2116
ssS'_Library_Python_2_7_site-packages_SQLAlchemy-0_8_0b2-py2_7-macosx-10_7-intel_egg_sqlalchemy_dialects___init__'
p2117
(dp2118
g29
(dp2119
g31
S'_Library_Python_2_7_site-packages_SQLAlchemy-0_8_0b2-py2_7-macosx-10_7-intel_egg_sqlalchemy_dialects___init__.html'
p2120
sg33
S'/Library/Python/2.7/site-packages/SQLAlchemy-0.8.0b2-py2.7-macosx-10.7-intel.egg/sqlalchemy/dialects/__init__'
p2121
sg35
g13
(g14
g15
NtRp2122
(dp2123
g18
I1
sg19
I0
sg20
I17
sg21
I0
sg22
I0
sg23
I13
sg24
I0
sbssg38
S'\xb0\xc9\xb0$\x00\x04nu\xca\xc0\x94=Q\xaf\x9b/'
p2124
ssS'_Library_Python_2_7_site-packages_SQLAlchemy-0_8_0b1dev-py2_7-macosx-10_7-intel_egg_sqlalchemy_pool'
p2125
(dp2126
g6
(dp2127
g8
S'_Library_Python_2_7_site-packages_SQLAlchemy-0_8_0b1dev-py2_7-macosx-10_7-intel_egg_sqlalchemy_pool.html'
p2128
sg10
S'/Library/Python/2.7/site-packages/SQLAlchemy-0.8.0b1dev-py2.7-macosx-10.7-intel.egg/sqlalchemy/pool'
p2129
sg12
g13
(g14
g15
NtRp2130
(dp2131
g18
I1
sg19
I0
sg20
I457
sg21
I0
sg22
I0
sg23
I355
sg24
I0
sbssg25
S'M1{\x944\x05\x90vI\xe4\x9c\xdc"sp\x8a'
p2132
ssS'_Library_Python_2_7_site-packages_SQLAlchemy-0_8_0b1dev-py2_7-macosx-10_7-intel_egg_sqlalchemy_orm_unitofwork'
p2133
(dp2134
g6
(dp2135
g8
S'_Library_Python_2_7_site-packages_SQLAlchemy-0_8_0b1dev-py2_7-macosx-10_7-intel_egg_sqlalchemy_orm_unitofwork.html'
p2136
sg10
S'/Library/Python/2.7/site-packages/SQLAlchemy-0.8.0b1dev-py2.7-macosx-10.7-intel.egg/sqlalchemy/orm/unitofwork'
p2137
sg12
g13
(g14
g15
NtRp2138
(dp2139
g18
I1
sg19
I0
sg20
I316
sg21
I0
sg22
I0
sg23
I253
sg24
I0
sbssg25
S'\xc9\xc6e\xd3h9oT\xa3\x8e\x18\xb5/}i\xc2'
p2140
ssS'_Library_Python_2_7_site-packages_SQLAlchemy-0_8_0b1dev-py2_7-macosx-10_7-intel_egg_sqlalchemy_orm_instrumentation'
p2141
(dp2142
g6
(dp2143
g8
S'_Library_Python_2_7_site-packages_SQLAlchemy-0_8_0b1dev-py2_7-macosx-10_7-intel_egg_sqlalchemy_orm_instrumentation.html'
p2144
sg10
S'/Library/Python/2.7/site-packages/SQLAlchemy-0.8.0b1dev-py2.7-macosx-10.7-intel.egg/sqlalchemy/orm/instrumentation'
p2145
sg12
g13
(g14
g15
NtRp2146
(dp2147
g18
I1
sg19
I0
sg20
I203
sg21
I0
sg22
I0
sg23
I80
sg24
I0
sbssg25
S'\xa6\xae\xc5\x1a\x91C\xa8r\x93\xc0\x8eB\xfcY\xed\xc7'
p2148
ssS'_Library_Python_2_7_site-packages_SQLAlchemy-0_8_0b2-py2_7-macosx-10_7-intel_egg_sqlalchemy_orm_interfaces'
p2149
(dp2150
g29
(dp2151
g31
S'_Library_Python_2_7_site-packages_SQLAlchemy-0_8_0b2-py2_7-macosx-10_7-intel_egg_sqlalchemy_orm_interfaces.html'
p2152
sg33
S'/Library/Python/2.7/site-packages/SQLAlchemy-0.8.0b2-py2.7-macosx-10.7-intel.egg/sqlalchemy/orm/interfaces'
p2153
sg35
g13
(g14
g15
NtRp2154
(dp2155
g18
I1
sg19
I0
sg20
I259
sg21
I0
sg22
I0
sg23
I153
sg24
I0
sbssg38
S'\xe9\xcew\x80 \xc8j\xdd\xf9\xb3\x1a\xa3\x96 <\xad'
p2156
ssS'_Library_Python_2_7_site-packages_SQLAlchemy-0_8_0b1dev-py2_7-macosx-10_7-intel_egg_sqlalchemy_engine_url'
p2157
(dp2158
g6
(dp2159
g8
S'_Library_Python_2_7_site-packages_SQLAlchemy-0_8_0b1dev-py2_7-macosx-10_7-intel_egg_sqlalchemy_engine_url.html'
p2160
sg10
S'/Library/Python/2.7/site-packages/SQLAlchemy-0.8.0b1dev-py2.7-macosx-10.7-intel.egg/sqlalchemy/engine/url'
p2161
sg12
g13
(g14
g15
NtRp2162
(dp2163
g18
I1
sg19
I0
sg20
I88
sg21
I0
sg22
I0
sg23
I73
sg24
I0
sbssg25
S'jz\xd8Y\x92x\xed\xb3\x99-A\xedF\x9f0\xd5'
p2164
ssS'_Library_Python_2_7_site-packages_SQLAlchemy-0_8_0b2-py2_7-macosx-10_7-intel_egg_sqlalchemy_orm_descriptor_props'
p2165
(dp2166
g29
(dp2167
g31
S'_Library_Python_2_7_site-packages_SQLAlchemy-0_8_0b2-py2_7-macosx-10_7-intel_egg_sqlalchemy_orm_descriptor_props.html'
p2168
sg33
S'/Library/Python/2.7/site-packages/SQLAlchemy-0.8.0b2-py2.7-macosx-10.7-intel.egg/sqlalchemy/orm/descriptor_props'
p2169
sg35
g13
(g14
g15
NtRp2170
(dp2171
g18
I1
sg19
I0
sg20
I222
sg21
I0
sg22
I0
sg23
I181
sg24
I0
sbssg38
S"@\xaa\x8c\x9d\xdf'\xa7\xf1z&$\x98\x0b\x1b\x85\xef"
p2172
ssS'_Library_Python_2_7_site-packages_nosestatus-0_0_1-py2_7_egg_nosestatus_status'
p2173
(dp2174
g6
(dp2175
g31
S'_Library_Python_2_7_site-packages_nosestatus-0_0_1-py2_7_egg_nosestatus_status.html'
p2176
sg33
S'/Library/Python/2.7/site-packages/nosestatus-0.0.1-py2.7.egg/nosestatus/status'
p2177
sg35
g13
(g14
g15
NtRp2178
(dp2179
g18
I1
sg19
I0
sg20
I55
sg21
I0
sg22
I0
sg23
I14
sg24
I0
sbssg25
S'E\x17\x0b\xb5o\xd3\x03Z\xfc\x17\xfc\xadH\xbd\xf78'
p2180
ssS'_Library_Python_2_7_site-packages_SQLAlchemy-0_8_0b2-py2_7-macosx-10_7-intel_egg_sqlalchemy_orm_session'
p2181
(dp2182
g29
(dp2183
g31
S'_Library_Python_2_7_site-packages_SQLAlchemy-0_8_0b2-py2_7-macosx-10_7-intel_egg_sqlalchemy_orm_session.html'
p2184
sg33
S'/Library/Python/2.7/site-packages/SQLAlchemy-0.8.0b2-py2.7-macosx-10.7-intel.egg/sqlalchemy/orm/session'
p2185
sg35
g13
(g14
g15
NtRp2186
(dp2187
g18
I1
sg19
I0
sg20
I725
sg21
I0
sg22
I0
sg23
I613
sg24
I0
sbssg38
S'\xb1\xd4\xf4@\xf1%3`E\xc8\xb5\xf5v\xd0_\xec'
p2188
ssS'_Library_Python_2_7_site-packages_pg_catalog_func___init__'
p2189
(dp2190
g6
(dp2191
g8
S'_Library_Python_2_7_site-packages_pg_catalog_func___init__.html'
p2192
sg10
S'/Library/Python/2.7/site-packages/pg_catalog/func/__init__'
p2193
sg12
g13
(g14
g15
NtRp2194
(dp2195
g18
I1
sg19
I0
sg20
I0
sg21
I0
sg22
I0
sg23
I0
sg24
I0
sbssg25
S'\xb0\xc8pN\xaf>\xa0\xbaz\x144\xe0A9\xb8?'
p2196
ssS'_Library_Python_2_7_site-packages_SQLAlchemy-0_8_0b2-py2_7-macosx-10_7-intel_egg_sqlalchemy_dialects_postgresql___init__'
p2197
(dp2198
g29
(dp2199
g31
S'_Library_Python_2_7_site-packages_SQLAlchemy-0_8_0b2-py2_7-macosx-10_7-intel_egg_sqlalchemy_dialects_postgresql___init__.html'
p2200
sg33
S'/Library/Python/2.7/site-packages/SQLAlchemy-0.8.0b2-py2.7-macosx-10.7-intel.egg/sqlalchemy/dialects/postgresql/__init__'
p2201
sg35
g13
(g14
g15
NtRp2202
(dp2203
g18
I1
sg19
I0
sg20
I5
sg21
I0
sg22
I0
sg23
I0
sg24
I0
sbssg38
S'l\x99\xbc\xc0\x9d\xf3\xe4*\xde\xba+\xab9\xf4\xf6\xf1'
p2204
ssS'_Library_Python_2_7_site-packages_SQLAlchemy-0_8_0b1dev-py2_7-macosx-10_7-intel_egg_sqlalchemy_util_langhelpers'
p2205
(dp2206
g6
(dp2207
g8
S'_Library_Python_2_7_site-packages_SQLAlchemy-0_8_0b1dev-py2_7-macosx-10_7-intel_egg_sqlalchemy_util_langhelpers.html'
p2208
sg10
S'/Library/Python/2.7/site-packages/SQLAlchemy-0.8.0b1dev-py2.7-macosx-10.7-intel.egg/sqlalchemy/util/langhelpers'
p2209
sg12
g13
(g14
g15
NtRp2210
(dp2211
g18
I1
sg19
I0
sg20
I486
sg21
I0
sg22
I0
sg23
I253
sg24
I0
sbssg25
S'\x1c\x02\x14+\x87\xc4,j\xd8)\x05\x98\xb4\x8a(Q'
p2212
ssS'_Library_Python_2_7_site-packages_nose_core'
p2213
(dp2214
g6
(dp2215
g8
S'_Library_Python_2_7_site-packages_nose_core.html'
p2216
sg10
S'/Library/Python/2.7/site-packages/nose/core'
p2217
sg12
g13
(g14
g15
NtRp2218
(dp2219
g18
I1
sg19
I0
sg20
I156
sg21
I0
sg22
I0
sg23
I58
sg24
I0
sbssg25
S'\xc7\xdcXiU\x12\xb316\xae\xf7\xfb\x0f\xbf_\xea'
p2220
ssS'_Library_Python_2_7_site-packages_SQLAlchemy-0_8_0b1dev-py2_7-macosx-10_7-intel_egg_sqlalchemy_orm_loading'
p2221
(dp2222
g6
(dp2223
g8
S'_Library_Python_2_7_site-packages_SQLAlchemy-0_8_0b1dev-py2_7-macosx-10_7-intel_egg_sqlalchemy_orm_loading.html'
p2224
sg10
S'/Library/Python/2.7/site-packages/SQLAlchemy-0.8.0b1dev-py2.7-macosx-10.7-intel.egg/sqlalchemy/orm/loading'
p2225
sg12
g13
(g14
g15
NtRp2226
(dp2227
g18
I1
sg19
I0
sg20
I304
sg21
I0
sg22
I0
sg23
I286
sg24
I0
sbssg25
S'\x06\xf4)V./Z\x15:\xb5\x05\x0c\xa7\xa0\xd7W'
p2228
ssS'_Library_Python_2_7_site-packages_SQLAlchemy-0_8_0b1dev-py2_7-macosx-10_7-intel_egg_sqlalchemy_ext_declarative_api'
p2229
(dp2230
g6
(dp2231
g8
S'_Library_Python_2_7_site-packages_SQLAlchemy-0_8_0b1dev-py2_7-macosx-10_7-intel_egg_sqlalchemy_ext_declarative_api.html'
p2232
sg10
S'/Library/Python/2.7/site-packages/SQLAlchemy-0.8.0b1dev-py2.7-macosx-10.7-intel.egg/sqlalchemy/ext/declarative/api'
p2233
sg12
g13
(g14
g15
NtRp2234
(dp2235
g18
I1
sg19
I0
sg20
I92
sg21
I0
sg22
I0
sg23
I47
sg24
I0
sbssg25
S'\x7f\xa4\xf0\xc5S\xd8~!\xd8\x9cg\xb8\x1f\x9c\xb2\xc1'
p2236
ssS'_Library_Python_2_7_site-packages_SQLAlchemy-0_8_0b2-py2_7-macosx-10_7-intel_egg_sqlalchemy_orm_sync'
p2237
(dp2238
g29
(dp2239
g31
S'_Library_Python_2_7_site-packages_SQLAlchemy-0_8_0b2-py2_7-macosx-10_7-intel_egg_sqlalchemy_orm_sync.html'
p2240
sg33
S'/Library/Python/2.7/site-packages/SQLAlchemy-0.8.0b2-py2.7-macosx-10.7-intel.egg/sqlalchemy/orm/sync'
p2241
sg35
g13
(g14
g15
NtRp2242
(dp2243
g18
I1
sg19
I0
sg20
I55
sg21
I0
sg22
I0
sg23
I47
sg24
I0
sbssg38
S'\x91\x80{\xbcx)\xd5\xa8\x8c<y\xb4\xe9\t\xf2\xca'
p2244
ssS'_Library_Python_2_7_site-packages_SQLAlchemy-0_8_0b1dev-py2_7-macosx-10_7-intel_egg_sqlalchemy_cresultproxy'
p2245
(dp2246
g6
(dp2247
g8
S'_Library_Python_2_7_site-packages_SQLAlchemy-0_8_0b1dev-py2_7-macosx-10_7-intel_egg_sqlalchemy_cresultproxy.html'
p2248
sg10
S'/Library/Python/2.7/site-packages/SQLAlchemy-0.8.0b1dev-py2.7-macosx-10.7-intel.egg/sqlalchemy/cresultproxy'
p2249
sg12
g13
(g14
g15
NtRp2250
(dp2251
g18
I1
sg19
I0
sg20
I6
sg21
I0
sg22
I0
sg23
I0
sg24
I0
sbssg25
S'1\x8f\xc1\xad.\xb6\xd3c\x02m6p\xf4\xdd\xc4_'
p2252
ssS'_Library_Python_2_7_site-packages_pg_catalog_pg_collation'
p2253
(dp2254
g6
(dp2255
g8
S'_Library_Python_2_7_site-packages_pg_catalog_pg_collation.html'
p2256
sg10
S'/Library/Python/2.7/site-packages/pg_catalog/pg_collation'
p2257
sg12
g13
(g14
g15
NtRp2258
(dp2259
g18
I1
sg19
I0
sg20
I8
sg21
I0
sg22
I0
sg23
I0
sg24
I0
sbssg25
S'\x0e\xec*\x89P\x8ap\xd0R.%\xd7yN\xbc\x8a'
p2260
ssS'_Library_Python_2_7_site-packages_SQLAlchemy-0_8_0b2-py2_7-macosx-10_7-intel_egg_sqlalchemy_orm_collections'
p2261
(dp2262
g29
(dp2263
g31
S'_Library_Python_2_7_site-packages_SQLAlchemy-0_8_0b2-py2_7-macosx-10_7-intel_egg_sqlalchemy_orm_collections.html'
p2264
sg33
S'/Library/Python/2.7/site-packages/SQLAlchemy-0.8.0b2-py2.7-macosx-10.7-intel.egg/sqlalchemy/orm/collections'
p2265
sg35
g13
(g14
g15
NtRp2266
(dp2267
g18
I1
sg19
I0
sg20
I690
sg21
I0
sg22
I0
sg23
I400
sg24
I0
sbssg38
S'Yd\xcf\xb7\xbe\xc7\xf1= \xd29q\xdd\x9a)\x9e'
p2268
ssS'_Library_Python_2_7_site-packages_pg_catalog_pg_amop'
p2269
(dp2270
g6
(dp2271
g8
S'_Library_Python_2_7_site-packages_pg_catalog_pg_amop.html'
p2272
sg10
S'/Library/Python/2.7/site-packages/pg_catalog/pg_amop'
p2273
sg12
g13
(g14
g15
NtRp2274
(dp2275
g18
I1
sg19
I0
sg20
I12
sg21
I0
sg22
I0
sg23
I0
sg24
I0
sbssg25
S'\x96%\x06_d\x7f\xa1u\xd4\xbe+s\xa2\xa3,\xd3'
p2276
ssS'_Library_Python_2_7_site-packages_SQLAlchemy-0_8_0b2-py2_7-macosx-10_7-intel_egg_sqlalchemy_sql_visitors'
p2277
(dp2278
g29
(dp2279
g31
S'_Library_Python_2_7_site-packages_SQLAlchemy-0_8_0b2-py2_7-macosx-10_7-intel_egg_sqlalchemy_sql_visitors.html'
p2280
sg33
S'/Library/Python/2.7/site-packages/SQLAlchemy-0.8.0b2-py2.7-macosx-10.7-intel.egg/sqlalchemy/sql/visitors'
p2281
sg35
g13
(g14
g15
NtRp2282
(dp2283
g18
I1
sg19
I0
sg20
I126
sg21
I0
sg22
I0
sg23
I70
sg24
I0
sbssg38
S'\x98u\x81\x91D\xa7\xe7=\xd1\xbe\xc9`R\xc4\x1a\xd3'
p2284
ssS'_Library_Python_2_7_site-packages_SQLAlchemy-0_8_0b2-py2_7-macosx-10_7-intel_egg_sqlalchemy_orm_evaluator'
p2285
(dp2286
g29
(dp2287
g31
S'_Library_Python_2_7_site-packages_SQLAlchemy-0_8_0b2-py2_7-macosx-10_7-intel_egg_sqlalchemy_orm_evaluator.html'
p2288
sg33
S'/Library/Python/2.7/site-packages/SQLAlchemy-0.8.0b2-py2.7-macosx-10.7-intel.egg/sqlalchemy/orm/evaluator'
p2289
sg35
g13
(g14
g15
NtRp2290
(dp2291
g18
I1
sg19
I0
sg20
I77
sg21
I0
sg22
I0
sg23
I62
sg24
I0
sbssg38
S"\x91\x0eU\x13\x13\xde'R\x18\xc7\xdb{\xb9T\xf71"
p2292
ssS'_Library_Python_2_7_site-packages_pg_catalog_pg_extension'
p2293
(dp2294
g6
(dp2295
g8
S'_Library_Python_2_7_site-packages_pg_catalog_pg_extension.html'
p2296
sg10
S'/Library/Python/2.7/site-packages/pg_catalog/pg_extension'
p2297
sg12
g13
(g14
g15
NtRp2298
(dp2299
g18
I1
sg19
I0
sg20
I8
sg21
I0
sg22
I0
sg23
I0
sg24
I0
sbssg25
S' \xd6f\r\xbd \x1f\x97\xd2_\x9a\x06\xf8@\x82\x90'
p2300
sssS'version'
p2301
S'3.6b1'
p2302
sS'settings'
p2303
S"\xd5\xb6M\xc2\x8c\xba\xe7\xb6\x14\xcb'\xcb\x90~\x00h"
p2304
sS'format'
p2305
I1
s.